
Microondas.elf:     file format elf32-littlearm

Sections:
Idx Name          Size      VMA       LMA       File off  Algn
  0 .isr_vector   000000c0  08000000  08000000  00001000  2**0
                  CONTENTS, ALLOC, LOAD, READONLY, DATA
  1 .text         000028ec  080000c0  080000c0  000010c0  2**2
                  CONTENTS, ALLOC, LOAD, READONLY, CODE
  2 .rodata       000001ec  080029ac  080029ac  000039ac  2**2
                  CONTENTS, ALLOC, LOAD, READONLY, DATA
  3 .ARM.extab    00000000  08002b98  08002b98  0000407c  2**0
                  CONTENTS, READONLY
  4 .ARM          00000000  08002b98  08002b98  0000407c  2**0
                  CONTENTS, READONLY
  5 .preinit_array 00000000  08002b98  08002b98  0000407c  2**0
                  CONTENTS, ALLOC, LOAD, DATA
  6 .init_array   00000004  08002b98  08002b98  00003b98  2**2
                  CONTENTS, ALLOC, LOAD, READONLY, DATA
  7 .fini_array   00000004  08002b9c  08002b9c  00003b9c  2**2
                  CONTENTS, ALLOC, LOAD, READONLY, DATA
  8 .data         0000007c  20000000  08002ba0  00004000  2**2
                  CONTENTS, ALLOC, LOAD, DATA
  9 .bss          000001b4  2000007c  08002c1c  0000407c  2**2
                  ALLOC
 10 ._user_heap_stack 00000600  20000230  08002c1c  00004230  2**0
                  ALLOC
 11 .ARM.attributes 00000028  00000000  00000000  0000407c  2**0
                  CONTENTS, READONLY
 12 .debug_info   00001566  00000000  00000000  000040a4  2**0
                  CONTENTS, READONLY, DEBUGGING, OCTETS
 13 .debug_abbrev 000003e6  00000000  00000000  0000560a  2**0
                  CONTENTS, READONLY, DEBUGGING, OCTETS
 14 .debug_aranges 000001d8  00000000  00000000  000059f0  2**3
                  CONTENTS, READONLY, DEBUGGING, OCTETS
 15 .debug_rnglists 00000163  00000000  00000000  00005bc8  2**0
                  CONTENTS, READONLY, DEBUGGING, OCTETS
 16 .debug_macro  0000c6ae  00000000  00000000  00005d2b  2**0
                  CONTENTS, READONLY, DEBUGGING, OCTETS
 17 .debug_line   00001ebf  00000000  00000000  000123d9  2**0
                  CONTENTS, READONLY, DEBUGGING, OCTETS
 18 .debug_str    000427d8  00000000  00000000  00014298  2**0
                  CONTENTS, READONLY, DEBUGGING, OCTETS
 19 .comment      00000043  00000000  00000000  00056a70  2**0
                  CONTENTS, READONLY
 20 .debug_frame  00000b48  00000000  00000000  00056ab4  2**2
                  CONTENTS, READONLY, DEBUGGING, OCTETS
 21 .debug_line_str 00000040  00000000  00000000  000575fc  2**0
                  CONTENTS, READONLY, DEBUGGING, OCTETS

Disassembly of section .text:

080000c0 <__do_global_dtors_aux>:
 80000c0:	b510      	push	{r4, lr}
 80000c2:	4c06      	ldr	r4, [pc, #24]	@ (80000dc <__do_global_dtors_aux+0x1c>)
 80000c4:	7823      	ldrb	r3, [r4, #0]
 80000c6:	2b00      	cmp	r3, #0
 80000c8:	d107      	bne.n	80000da <__do_global_dtors_aux+0x1a>
 80000ca:	4b05      	ldr	r3, [pc, #20]	@ (80000e0 <__do_global_dtors_aux+0x20>)
 80000cc:	2b00      	cmp	r3, #0
 80000ce:	d002      	beq.n	80000d6 <__do_global_dtors_aux+0x16>
 80000d0:	4804      	ldr	r0, [pc, #16]	@ (80000e4 <__do_global_dtors_aux+0x24>)
 80000d2:	e000      	b.n	80000d6 <__do_global_dtors_aux+0x16>
 80000d4:	bf00      	nop
 80000d6:	2301      	movs	r3, #1
 80000d8:	7023      	strb	r3, [r4, #0]
 80000da:	bd10      	pop	{r4, pc}
 80000dc:	2000007c 	.word	0x2000007c
 80000e0:	00000000 	.word	0x00000000
 80000e4:	08002994 	.word	0x08002994

080000e8 <frame_dummy>:
 80000e8:	4b04      	ldr	r3, [pc, #16]	@ (80000fc <frame_dummy+0x14>)
 80000ea:	b510      	push	{r4, lr}
 80000ec:	2b00      	cmp	r3, #0
 80000ee:	d003      	beq.n	80000f8 <frame_dummy+0x10>
 80000f0:	4903      	ldr	r1, [pc, #12]	@ (8000100 <frame_dummy+0x18>)
 80000f2:	4804      	ldr	r0, [pc, #16]	@ (8000104 <frame_dummy+0x1c>)
 80000f4:	e000      	b.n	80000f8 <frame_dummy+0x10>
 80000f6:	bf00      	nop
 80000f8:	bd10      	pop	{r4, pc}
 80000fa:	46c0      	nop			@ (mov r8, r8)
 80000fc:	00000000 	.word	0x00000000
 8000100:	20000080 	.word	0x20000080
 8000104:	08002994 	.word	0x08002994

08000108 <__gnu_thumb1_case_shi>:
 8000108:	b403      	push	{r0, r1}
 800010a:	4671      	mov	r1, lr
 800010c:	0849      	lsrs	r1, r1, #1
 800010e:	0040      	lsls	r0, r0, #1
 8000110:	0049      	lsls	r1, r1, #1
 8000112:	5e09      	ldrsh	r1, [r1, r0]
 8000114:	0049      	lsls	r1, r1, #1
 8000116:	448e      	add	lr, r1
 8000118:	bc03      	pop	{r0, r1}
 800011a:	4770      	bx	lr

0800011c <__udivsi3>:
 800011c:	2200      	movs	r2, #0
 800011e:	0843      	lsrs	r3, r0, #1
 8000120:	428b      	cmp	r3, r1
 8000122:	d374      	bcc.n	800020e <__udivsi3+0xf2>
 8000124:	0903      	lsrs	r3, r0, #4
 8000126:	428b      	cmp	r3, r1
 8000128:	d35f      	bcc.n	80001ea <__udivsi3+0xce>
 800012a:	0a03      	lsrs	r3, r0, #8
 800012c:	428b      	cmp	r3, r1
 800012e:	d344      	bcc.n	80001ba <__udivsi3+0x9e>
 8000130:	0b03      	lsrs	r3, r0, #12
 8000132:	428b      	cmp	r3, r1
 8000134:	d328      	bcc.n	8000188 <__udivsi3+0x6c>
 8000136:	0c03      	lsrs	r3, r0, #16
 8000138:	428b      	cmp	r3, r1
 800013a:	d30d      	bcc.n	8000158 <__udivsi3+0x3c>
 800013c:	22ff      	movs	r2, #255	@ 0xff
 800013e:	0209      	lsls	r1, r1, #8
 8000140:	ba12      	rev	r2, r2
 8000142:	0c03      	lsrs	r3, r0, #16
 8000144:	428b      	cmp	r3, r1
 8000146:	d302      	bcc.n	800014e <__udivsi3+0x32>
 8000148:	1212      	asrs	r2, r2, #8
 800014a:	0209      	lsls	r1, r1, #8
 800014c:	d065      	beq.n	800021a <__udivsi3+0xfe>
 800014e:	0b03      	lsrs	r3, r0, #12
 8000150:	428b      	cmp	r3, r1
 8000152:	d319      	bcc.n	8000188 <__udivsi3+0x6c>
 8000154:	e000      	b.n	8000158 <__udivsi3+0x3c>
 8000156:	0a09      	lsrs	r1, r1, #8
 8000158:	0bc3      	lsrs	r3, r0, #15
 800015a:	428b      	cmp	r3, r1
 800015c:	d301      	bcc.n	8000162 <__udivsi3+0x46>
 800015e:	03cb      	lsls	r3, r1, #15
 8000160:	1ac0      	subs	r0, r0, r3
 8000162:	4152      	adcs	r2, r2
 8000164:	0b83      	lsrs	r3, r0, #14
 8000166:	428b      	cmp	r3, r1
 8000168:	d301      	bcc.n	800016e <__udivsi3+0x52>
 800016a:	038b      	lsls	r3, r1, #14
 800016c:	1ac0      	subs	r0, r0, r3
 800016e:	4152      	adcs	r2, r2
 8000170:	0b43      	lsrs	r3, r0, #13
 8000172:	428b      	cmp	r3, r1
 8000174:	d301      	bcc.n	800017a <__udivsi3+0x5e>
 8000176:	034b      	lsls	r3, r1, #13
 8000178:	1ac0      	subs	r0, r0, r3
 800017a:	4152      	adcs	r2, r2
 800017c:	0b03      	lsrs	r3, r0, #12
 800017e:	428b      	cmp	r3, r1
 8000180:	d301      	bcc.n	8000186 <__udivsi3+0x6a>
 8000182:	030b      	lsls	r3, r1, #12
 8000184:	1ac0      	subs	r0, r0, r3
 8000186:	4152      	adcs	r2, r2
 8000188:	0ac3      	lsrs	r3, r0, #11
 800018a:	428b      	cmp	r3, r1
 800018c:	d301      	bcc.n	8000192 <__udivsi3+0x76>
 800018e:	02cb      	lsls	r3, r1, #11
 8000190:	1ac0      	subs	r0, r0, r3
 8000192:	4152      	adcs	r2, r2
 8000194:	0a83      	lsrs	r3, r0, #10
 8000196:	428b      	cmp	r3, r1
 8000198:	d301      	bcc.n	800019e <__udivsi3+0x82>
 800019a:	028b      	lsls	r3, r1, #10
 800019c:	1ac0      	subs	r0, r0, r3
 800019e:	4152      	adcs	r2, r2
 80001a0:	0a43      	lsrs	r3, r0, #9
 80001a2:	428b      	cmp	r3, r1
 80001a4:	d301      	bcc.n	80001aa <__udivsi3+0x8e>
 80001a6:	024b      	lsls	r3, r1, #9
 80001a8:	1ac0      	subs	r0, r0, r3
 80001aa:	4152      	adcs	r2, r2
 80001ac:	0a03      	lsrs	r3, r0, #8
 80001ae:	428b      	cmp	r3, r1
 80001b0:	d301      	bcc.n	80001b6 <__udivsi3+0x9a>
 80001b2:	020b      	lsls	r3, r1, #8
 80001b4:	1ac0      	subs	r0, r0, r3
 80001b6:	4152      	adcs	r2, r2
 80001b8:	d2cd      	bcs.n	8000156 <__udivsi3+0x3a>
 80001ba:	09c3      	lsrs	r3, r0, #7
 80001bc:	428b      	cmp	r3, r1
 80001be:	d301      	bcc.n	80001c4 <__udivsi3+0xa8>
 80001c0:	01cb      	lsls	r3, r1, #7
 80001c2:	1ac0      	subs	r0, r0, r3
 80001c4:	4152      	adcs	r2, r2
 80001c6:	0983      	lsrs	r3, r0, #6
 80001c8:	428b      	cmp	r3, r1
 80001ca:	d301      	bcc.n	80001d0 <__udivsi3+0xb4>
 80001cc:	018b      	lsls	r3, r1, #6
 80001ce:	1ac0      	subs	r0, r0, r3
 80001d0:	4152      	adcs	r2, r2
 80001d2:	0943      	lsrs	r3, r0, #5
 80001d4:	428b      	cmp	r3, r1
 80001d6:	d301      	bcc.n	80001dc <__udivsi3+0xc0>
 80001d8:	014b      	lsls	r3, r1, #5
 80001da:	1ac0      	subs	r0, r0, r3
 80001dc:	4152      	adcs	r2, r2
 80001de:	0903      	lsrs	r3, r0, #4
 80001e0:	428b      	cmp	r3, r1
 80001e2:	d301      	bcc.n	80001e8 <__udivsi3+0xcc>
 80001e4:	010b      	lsls	r3, r1, #4
 80001e6:	1ac0      	subs	r0, r0, r3
 80001e8:	4152      	adcs	r2, r2
 80001ea:	08c3      	lsrs	r3, r0, #3
 80001ec:	428b      	cmp	r3, r1
 80001ee:	d301      	bcc.n	80001f4 <__udivsi3+0xd8>
 80001f0:	00cb      	lsls	r3, r1, #3
 80001f2:	1ac0      	subs	r0, r0, r3
 80001f4:	4152      	adcs	r2, r2
 80001f6:	0883      	lsrs	r3, r0, #2
 80001f8:	428b      	cmp	r3, r1
 80001fa:	d301      	bcc.n	8000200 <__udivsi3+0xe4>
 80001fc:	008b      	lsls	r3, r1, #2
 80001fe:	1ac0      	subs	r0, r0, r3
 8000200:	4152      	adcs	r2, r2
 8000202:	0843      	lsrs	r3, r0, #1
 8000204:	428b      	cmp	r3, r1
 8000206:	d301      	bcc.n	800020c <__udivsi3+0xf0>
 8000208:	004b      	lsls	r3, r1, #1
 800020a:	1ac0      	subs	r0, r0, r3
 800020c:	4152      	adcs	r2, r2
 800020e:	1a41      	subs	r1, r0, r1
 8000210:	d200      	bcs.n	8000214 <__udivsi3+0xf8>
 8000212:	4601      	mov	r1, r0
 8000214:	4152      	adcs	r2, r2
 8000216:	4610      	mov	r0, r2
 8000218:	4770      	bx	lr
 800021a:	e7ff      	b.n	800021c <__udivsi3+0x100>
 800021c:	b501      	push	{r0, lr}
 800021e:	2000      	movs	r0, #0
 8000220:	f000 f8f0 	bl	8000404 <__aeabi_idiv0>
 8000224:	bd02      	pop	{r1, pc}
 8000226:	46c0      	nop			@ (mov r8, r8)

08000228 <__aeabi_uidivmod>:
 8000228:	2900      	cmp	r1, #0
 800022a:	d0f7      	beq.n	800021c <__udivsi3+0x100>
 800022c:	e776      	b.n	800011c <__udivsi3>
 800022e:	4770      	bx	lr

08000230 <__divsi3>:
 8000230:	4603      	mov	r3, r0
 8000232:	430b      	orrs	r3, r1
 8000234:	d47f      	bmi.n	8000336 <__divsi3+0x106>
 8000236:	2200      	movs	r2, #0
 8000238:	0843      	lsrs	r3, r0, #1
 800023a:	428b      	cmp	r3, r1
 800023c:	d374      	bcc.n	8000328 <__divsi3+0xf8>
 800023e:	0903      	lsrs	r3, r0, #4
 8000240:	428b      	cmp	r3, r1
 8000242:	d35f      	bcc.n	8000304 <__divsi3+0xd4>
 8000244:	0a03      	lsrs	r3, r0, #8
 8000246:	428b      	cmp	r3, r1
 8000248:	d344      	bcc.n	80002d4 <__divsi3+0xa4>
 800024a:	0b03      	lsrs	r3, r0, #12
 800024c:	428b      	cmp	r3, r1
 800024e:	d328      	bcc.n	80002a2 <__divsi3+0x72>
 8000250:	0c03      	lsrs	r3, r0, #16
 8000252:	428b      	cmp	r3, r1
 8000254:	d30d      	bcc.n	8000272 <__divsi3+0x42>
 8000256:	22ff      	movs	r2, #255	@ 0xff
 8000258:	0209      	lsls	r1, r1, #8
 800025a:	ba12      	rev	r2, r2
 800025c:	0c03      	lsrs	r3, r0, #16
 800025e:	428b      	cmp	r3, r1
 8000260:	d302      	bcc.n	8000268 <__divsi3+0x38>
 8000262:	1212      	asrs	r2, r2, #8
 8000264:	0209      	lsls	r1, r1, #8
 8000266:	d065      	beq.n	8000334 <__divsi3+0x104>
 8000268:	0b03      	lsrs	r3, r0, #12
 800026a:	428b      	cmp	r3, r1
 800026c:	d319      	bcc.n	80002a2 <__divsi3+0x72>
 800026e:	e000      	b.n	8000272 <__divsi3+0x42>
 8000270:	0a09      	lsrs	r1, r1, #8
 8000272:	0bc3      	lsrs	r3, r0, #15
 8000274:	428b      	cmp	r3, r1
 8000276:	d301      	bcc.n	800027c <__divsi3+0x4c>
 8000278:	03cb      	lsls	r3, r1, #15
 800027a:	1ac0      	subs	r0, r0, r3
 800027c:	4152      	adcs	r2, r2
 800027e:	0b83      	lsrs	r3, r0, #14
 8000280:	428b      	cmp	r3, r1
 8000282:	d301      	bcc.n	8000288 <__divsi3+0x58>
 8000284:	038b      	lsls	r3, r1, #14
 8000286:	1ac0      	subs	r0, r0, r3
 8000288:	4152      	adcs	r2, r2
 800028a:	0b43      	lsrs	r3, r0, #13
 800028c:	428b      	cmp	r3, r1
 800028e:	d301      	bcc.n	8000294 <__divsi3+0x64>
 8000290:	034b      	lsls	r3, r1, #13
 8000292:	1ac0      	subs	r0, r0, r3
 8000294:	4152      	adcs	r2, r2
 8000296:	0b03      	lsrs	r3, r0, #12
 8000298:	428b      	cmp	r3, r1
 800029a:	d301      	bcc.n	80002a0 <__divsi3+0x70>
 800029c:	030b      	lsls	r3, r1, #12
 800029e:	1ac0      	subs	r0, r0, r3
 80002a0:	4152      	adcs	r2, r2
 80002a2:	0ac3      	lsrs	r3, r0, #11
 80002a4:	428b      	cmp	r3, r1
 80002a6:	d301      	bcc.n	80002ac <__divsi3+0x7c>
 80002a8:	02cb      	lsls	r3, r1, #11
 80002aa:	1ac0      	subs	r0, r0, r3
 80002ac:	4152      	adcs	r2, r2
 80002ae:	0a83      	lsrs	r3, r0, #10
 80002b0:	428b      	cmp	r3, r1
 80002b2:	d301      	bcc.n	80002b8 <__divsi3+0x88>
 80002b4:	028b      	lsls	r3, r1, #10
 80002b6:	1ac0      	subs	r0, r0, r3
 80002b8:	4152      	adcs	r2, r2
 80002ba:	0a43      	lsrs	r3, r0, #9
 80002bc:	428b      	cmp	r3, r1
 80002be:	d301      	bcc.n	80002c4 <__divsi3+0x94>
 80002c0:	024b      	lsls	r3, r1, #9
 80002c2:	1ac0      	subs	r0, r0, r3
 80002c4:	4152      	adcs	r2, r2
 80002c6:	0a03      	lsrs	r3, r0, #8
 80002c8:	428b      	cmp	r3, r1
 80002ca:	d301      	bcc.n	80002d0 <__divsi3+0xa0>
 80002cc:	020b      	lsls	r3, r1, #8
 80002ce:	1ac0      	subs	r0, r0, r3
 80002d0:	4152      	adcs	r2, r2
 80002d2:	d2cd      	bcs.n	8000270 <__divsi3+0x40>
 80002d4:	09c3      	lsrs	r3, r0, #7
 80002d6:	428b      	cmp	r3, r1
 80002d8:	d301      	bcc.n	80002de <__divsi3+0xae>
 80002da:	01cb      	lsls	r3, r1, #7
 80002dc:	1ac0      	subs	r0, r0, r3
 80002de:	4152      	adcs	r2, r2
 80002e0:	0983      	lsrs	r3, r0, #6
 80002e2:	428b      	cmp	r3, r1
 80002e4:	d301      	bcc.n	80002ea <__divsi3+0xba>
 80002e6:	018b      	lsls	r3, r1, #6
 80002e8:	1ac0      	subs	r0, r0, r3
 80002ea:	4152      	adcs	r2, r2
 80002ec:	0943      	lsrs	r3, r0, #5
 80002ee:	428b      	cmp	r3, r1
 80002f0:	d301      	bcc.n	80002f6 <__divsi3+0xc6>
 80002f2:	014b      	lsls	r3, r1, #5
 80002f4:	1ac0      	subs	r0, r0, r3
 80002f6:	4152      	adcs	r2, r2
 80002f8:	0903      	lsrs	r3, r0, #4
 80002fa:	428b      	cmp	r3, r1
 80002fc:	d301      	bcc.n	8000302 <__divsi3+0xd2>
 80002fe:	010b      	lsls	r3, r1, #4
 8000300:	1ac0      	subs	r0, r0, r3
 8000302:	4152      	adcs	r2, r2
 8000304:	08c3      	lsrs	r3, r0, #3
 8000306:	428b      	cmp	r3, r1
 8000308:	d301      	bcc.n	800030e <__divsi3+0xde>
 800030a:	00cb      	lsls	r3, r1, #3
 800030c:	1ac0      	subs	r0, r0, r3
 800030e:	4152      	adcs	r2, r2
 8000310:	0883      	lsrs	r3, r0, #2
 8000312:	428b      	cmp	r3, r1
 8000314:	d301      	bcc.n	800031a <__divsi3+0xea>
 8000316:	008b      	lsls	r3, r1, #2
 8000318:	1ac0      	subs	r0, r0, r3
 800031a:	4152      	adcs	r2, r2
 800031c:	0843      	lsrs	r3, r0, #1
 800031e:	428b      	cmp	r3, r1
 8000320:	d301      	bcc.n	8000326 <__divsi3+0xf6>
 8000322:	004b      	lsls	r3, r1, #1
 8000324:	1ac0      	subs	r0, r0, r3
 8000326:	4152      	adcs	r2, r2
 8000328:	1a41      	subs	r1, r0, r1
 800032a:	d200      	bcs.n	800032e <__divsi3+0xfe>
 800032c:	4601      	mov	r1, r0
 800032e:	4152      	adcs	r2, r2
 8000330:	4610      	mov	r0, r2
 8000332:	4770      	bx	lr
 8000334:	e05d      	b.n	80003f2 <__divsi3+0x1c2>
 8000336:	0fca      	lsrs	r2, r1, #31
 8000338:	d000      	beq.n	800033c <__divsi3+0x10c>
 800033a:	4249      	negs	r1, r1
 800033c:	1003      	asrs	r3, r0, #32
 800033e:	d300      	bcc.n	8000342 <__divsi3+0x112>
 8000340:	4240      	negs	r0, r0
 8000342:	4053      	eors	r3, r2
 8000344:	2200      	movs	r2, #0
 8000346:	469c      	mov	ip, r3
 8000348:	0903      	lsrs	r3, r0, #4
 800034a:	428b      	cmp	r3, r1
 800034c:	d32d      	bcc.n	80003aa <__divsi3+0x17a>
 800034e:	0a03      	lsrs	r3, r0, #8
 8000350:	428b      	cmp	r3, r1
 8000352:	d312      	bcc.n	800037a <__divsi3+0x14a>
 8000354:	22fc      	movs	r2, #252	@ 0xfc
 8000356:	0189      	lsls	r1, r1, #6
 8000358:	ba12      	rev	r2, r2
 800035a:	0a03      	lsrs	r3, r0, #8
 800035c:	428b      	cmp	r3, r1
 800035e:	d30c      	bcc.n	800037a <__divsi3+0x14a>
 8000360:	0189      	lsls	r1, r1, #6
 8000362:	1192      	asrs	r2, r2, #6
 8000364:	428b      	cmp	r3, r1
 8000366:	d308      	bcc.n	800037a <__divsi3+0x14a>
 8000368:	0189      	lsls	r1, r1, #6
 800036a:	1192      	asrs	r2, r2, #6
 800036c:	428b      	cmp	r3, r1
 800036e:	d304      	bcc.n	800037a <__divsi3+0x14a>
 8000370:	0189      	lsls	r1, r1, #6
 8000372:	d03a      	beq.n	80003ea <__divsi3+0x1ba>
 8000374:	1192      	asrs	r2, r2, #6
 8000376:	e000      	b.n	800037a <__divsi3+0x14a>
 8000378:	0989      	lsrs	r1, r1, #6
 800037a:	09c3      	lsrs	r3, r0, #7
 800037c:	428b      	cmp	r3, r1
 800037e:	d301      	bcc.n	8000384 <__divsi3+0x154>
 8000380:	01cb      	lsls	r3, r1, #7
 8000382:	1ac0      	subs	r0, r0, r3
 8000384:	4152      	adcs	r2, r2
 8000386:	0983      	lsrs	r3, r0, #6
 8000388:	428b      	cmp	r3, r1
 800038a:	d301      	bcc.n	8000390 <__divsi3+0x160>
 800038c:	018b      	lsls	r3, r1, #6
 800038e:	1ac0      	subs	r0, r0, r3
 8000390:	4152      	adcs	r2, r2
 8000392:	0943      	lsrs	r3, r0, #5
 8000394:	428b      	cmp	r3, r1
 8000396:	d301      	bcc.n	800039c <__divsi3+0x16c>
 8000398:	014b      	lsls	r3, r1, #5
 800039a:	1ac0      	subs	r0, r0, r3
 800039c:	4152      	adcs	r2, r2
 800039e:	0903      	lsrs	r3, r0, #4
 80003a0:	428b      	cmp	r3, r1
 80003a2:	d301      	bcc.n	80003a8 <__divsi3+0x178>
 80003a4:	010b      	lsls	r3, r1, #4
 80003a6:	1ac0      	subs	r0, r0, r3
 80003a8:	4152      	adcs	r2, r2
 80003aa:	08c3      	lsrs	r3, r0, #3
 80003ac:	428b      	cmp	r3, r1
 80003ae:	d301      	bcc.n	80003b4 <__divsi3+0x184>
 80003b0:	00cb      	lsls	r3, r1, #3
 80003b2:	1ac0      	subs	r0, r0, r3
 80003b4:	4152      	adcs	r2, r2
 80003b6:	0883      	lsrs	r3, r0, #2
 80003b8:	428b      	cmp	r3, r1
 80003ba:	d301      	bcc.n	80003c0 <__divsi3+0x190>
 80003bc:	008b      	lsls	r3, r1, #2
 80003be:	1ac0      	subs	r0, r0, r3
 80003c0:	4152      	adcs	r2, r2
 80003c2:	d2d9      	bcs.n	8000378 <__divsi3+0x148>
 80003c4:	0843      	lsrs	r3, r0, #1
 80003c6:	428b      	cmp	r3, r1
 80003c8:	d301      	bcc.n	80003ce <__divsi3+0x19e>
 80003ca:	004b      	lsls	r3, r1, #1
 80003cc:	1ac0      	subs	r0, r0, r3
 80003ce:	4152      	adcs	r2, r2
 80003d0:	1a41      	subs	r1, r0, r1
 80003d2:	d200      	bcs.n	80003d6 <__divsi3+0x1a6>
 80003d4:	4601      	mov	r1, r0
 80003d6:	4663      	mov	r3, ip
 80003d8:	4152      	adcs	r2, r2
 80003da:	105b      	asrs	r3, r3, #1
 80003dc:	4610      	mov	r0, r2
 80003de:	d301      	bcc.n	80003e4 <__divsi3+0x1b4>
 80003e0:	4240      	negs	r0, r0
 80003e2:	2b00      	cmp	r3, #0
 80003e4:	d500      	bpl.n	80003e8 <__divsi3+0x1b8>
 80003e6:	4249      	negs	r1, r1
 80003e8:	4770      	bx	lr
 80003ea:	4663      	mov	r3, ip
 80003ec:	105b      	asrs	r3, r3, #1
 80003ee:	d300      	bcc.n	80003f2 <__divsi3+0x1c2>
 80003f0:	4240      	negs	r0, r0
 80003f2:	b501      	push	{r0, lr}
 80003f4:	2000      	movs	r0, #0
 80003f6:	f000 f805 	bl	8000404 <__aeabi_idiv0>
 80003fa:	bd02      	pop	{r1, pc}

080003fc <__aeabi_idivmod>:
 80003fc:	2900      	cmp	r1, #0
 80003fe:	d0f8      	beq.n	80003f2 <__divsi3+0x1c2>
 8000400:	e716      	b.n	8000230 <__divsi3>
 8000402:	4770      	bx	lr

08000404 <__aeabi_idiv0>:
 8000404:	4770      	bx	lr
 8000406:	46c0      	nop			@ (mov r8, r8)

08000408 <__NVIC_EnableIRQ>:
  \details Enables a device specific interrupt in the NVIC interrupt controller.
  \param [in]      IRQn  Device specific interrupt number.
  \note    IRQn must not be negative.
 */
__STATIC_INLINE void __NVIC_EnableIRQ(IRQn_Type IRQn)
{
 8000408:	b580      	push	{r7, lr}
 800040a:	b082      	sub	sp, #8
 800040c:	af00      	add	r7, sp, #0
 800040e:	0002      	movs	r2, r0
 8000410:	1dfb      	adds	r3, r7, #7
 8000412:	701a      	strb	r2, [r3, #0]
  if ((int32_t)(IRQn) >= 0)
 8000414:	1dfb      	adds	r3, r7, #7
 8000416:	781b      	ldrb	r3, [r3, #0]
 8000418:	2b7f      	cmp	r3, #127	@ 0x7f
 800041a:	d809      	bhi.n	8000430 <__NVIC_EnableIRQ+0x28>
  {
    NVIC->ISER[0U] = (uint32_t)(1UL << (((uint32_t)IRQn) & 0x1FUL));
 800041c:	1dfb      	adds	r3, r7, #7
 800041e:	781b      	ldrb	r3, [r3, #0]
 8000420:	001a      	movs	r2, r3
 8000422:	231f      	movs	r3, #31
 8000424:	401a      	ands	r2, r3
 8000426:	4b04      	ldr	r3, [pc, #16]	@ (8000438 <__NVIC_EnableIRQ+0x30>)
 8000428:	2101      	movs	r1, #1
 800042a:	4091      	lsls	r1, r2
 800042c:	000a      	movs	r2, r1
 800042e:	601a      	str	r2, [r3, #0]
  }
}
 8000430:	46c0      	nop			@ (mov r8, r8)
 8000432:	46bd      	mov	sp, r7
 8000434:	b002      	add	sp, #8
 8000436:	bd80      	pop	{r7, pc}
 8000438:	e000e100 	.word	0xe000e100

0800043c <gpio_set>:
#define DOOR_PIN  GPIO_PIN_7
static uint8_t door_closed = 1;
static uint8_t door_pause  = 0;

/* ===== GPIO helpers ===== */
static inline void gpio_set(GPIO_TypeDef *p, uint32_t pin){ p->BSRR = pin; }
 800043c:	b580      	push	{r7, lr}
 800043e:	b082      	sub	sp, #8
 8000440:	af00      	add	r7, sp, #0
 8000442:	6078      	str	r0, [r7, #4]
 8000444:	6039      	str	r1, [r7, #0]
 8000446:	687b      	ldr	r3, [r7, #4]
 8000448:	683a      	ldr	r2, [r7, #0]
 800044a:	619a      	str	r2, [r3, #24]
 800044c:	46c0      	nop			@ (mov r8, r8)
 800044e:	46bd      	mov	sp, r7
 8000450:	b002      	add	sp, #8
 8000452:	bd80      	pop	{r7, pc}

08000454 <gpio_clr>:
static inline void gpio_clr(GPIO_TypeDef *p, uint32_t pin){ p->BRR  = pin; }
 8000454:	b580      	push	{r7, lr}
 8000456:	b082      	sub	sp, #8
 8000458:	af00      	add	r7, sp, #0
 800045a:	6078      	str	r0, [r7, #4]
 800045c:	6039      	str	r1, [r7, #0]
 800045e:	687b      	ldr	r3, [r7, #4]
 8000460:	683a      	ldr	r2, [r7, #0]
 8000462:	629a      	str	r2, [r3, #40]	@ 0x28
 8000464:	46c0      	nop			@ (mov r8, r8)
 8000466:	46bd      	mov	sp, r7
 8000468:	b002      	add	sp, #8
 800046a:	bd80      	pop	{r7, pc}

0800046c <gpio_rd>:
static inline uint32_t gpio_rd(GPIO_TypeDef *p, uint32_t pin){ return (p->IDR & pin); }
 800046c:	b580      	push	{r7, lr}
 800046e:	b082      	sub	sp, #8
 8000470:	af00      	add	r7, sp, #0
 8000472:	6078      	str	r0, [r7, #4]
 8000474:	6039      	str	r1, [r7, #0]
 8000476:	687b      	ldr	r3, [r7, #4]
 8000478:	691b      	ldr	r3, [r3, #16]
 800047a:	683a      	ldr	r2, [r7, #0]
 800047c:	4013      	ands	r3, r2
 800047e:	0018      	movs	r0, r3
 8000480:	46bd      	mov	sp, r7
 8000482:	b002      	add	sp, #8
 8000484:	bd80      	pop	{r7, pc}
	...

08000488 <q_put>:
static volatile uint8_t  temp_set=0;
static uint8_t have_temp=0;

/* ===== Cola de teclas ===== */
static uint8_t q[QSIZE]; static uint8_t qh=0, qt=0;
static inline bool q_put(uint8_t v){ uint8_t n=(qh+1)&(QSIZE-1); if(n==qt) return false; q[qh]=v; qh=n; return true; }
 8000488:	b580      	push	{r7, lr}
 800048a:	b084      	sub	sp, #16
 800048c:	af00      	add	r7, sp, #0
 800048e:	0002      	movs	r2, r0
 8000490:	1dfb      	adds	r3, r7, #7
 8000492:	701a      	strb	r2, [r3, #0]
 8000494:	4b10      	ldr	r3, [pc, #64]	@ (80004d8 <q_put+0x50>)
 8000496:	781b      	ldrb	r3, [r3, #0]
 8000498:	3301      	adds	r3, #1
 800049a:	b2da      	uxtb	r2, r3
 800049c:	200f      	movs	r0, #15
 800049e:	183b      	adds	r3, r7, r0
 80004a0:	210f      	movs	r1, #15
 80004a2:	400a      	ands	r2, r1
 80004a4:	701a      	strb	r2, [r3, #0]
 80004a6:	4b0d      	ldr	r3, [pc, #52]	@ (80004dc <q_put+0x54>)
 80004a8:	781b      	ldrb	r3, [r3, #0]
 80004aa:	183a      	adds	r2, r7, r0
 80004ac:	7812      	ldrb	r2, [r2, #0]
 80004ae:	429a      	cmp	r2, r3
 80004b0:	d101      	bne.n	80004b6 <q_put+0x2e>
 80004b2:	2300      	movs	r3, #0
 80004b4:	e00c      	b.n	80004d0 <q_put+0x48>
 80004b6:	4b08      	ldr	r3, [pc, #32]	@ (80004d8 <q_put+0x50>)
 80004b8:	781b      	ldrb	r3, [r3, #0]
 80004ba:	0019      	movs	r1, r3
 80004bc:	4b08      	ldr	r3, [pc, #32]	@ (80004e0 <q_put+0x58>)
 80004be:	1dfa      	adds	r2, r7, #7
 80004c0:	7812      	ldrb	r2, [r2, #0]
 80004c2:	545a      	strb	r2, [r3, r1]
 80004c4:	4b04      	ldr	r3, [pc, #16]	@ (80004d8 <q_put+0x50>)
 80004c6:	220f      	movs	r2, #15
 80004c8:	18ba      	adds	r2, r7, r2
 80004ca:	7812      	ldrb	r2, [r2, #0]
 80004cc:	701a      	strb	r2, [r3, #0]
 80004ce:	2301      	movs	r3, #1
 80004d0:	0018      	movs	r0, r3
 80004d2:	46bd      	mov	sp, r7
 80004d4:	b004      	add	sp, #16
 80004d6:	bd80      	pop	{r7, pc}
 80004d8:	200000b8 	.word	0x200000b8
 80004dc:	200000b9 	.word	0x200000b9
 80004e0:	200000a8 	.word	0x200000a8

080004e4 <q_get>:
static inline bool q_get(uint8_t *o){ if(qt==qh) return false; *o=q[qt]; qt=(qt+1)&(QSIZE-1); return true; }
 80004e4:	b580      	push	{r7, lr}
 80004e6:	b082      	sub	sp, #8
 80004e8:	af00      	add	r7, sp, #0
 80004ea:	6078      	str	r0, [r7, #4]
 80004ec:	4b0e      	ldr	r3, [pc, #56]	@ (8000528 <q_get+0x44>)
 80004ee:	781a      	ldrb	r2, [r3, #0]
 80004f0:	4b0e      	ldr	r3, [pc, #56]	@ (800052c <q_get+0x48>)
 80004f2:	781b      	ldrb	r3, [r3, #0]
 80004f4:	429a      	cmp	r2, r3
 80004f6:	d101      	bne.n	80004fc <q_get+0x18>
 80004f8:	2300      	movs	r3, #0
 80004fa:	e010      	b.n	800051e <q_get+0x3a>
 80004fc:	4b0a      	ldr	r3, [pc, #40]	@ (8000528 <q_get+0x44>)
 80004fe:	781b      	ldrb	r3, [r3, #0]
 8000500:	001a      	movs	r2, r3
 8000502:	4b0b      	ldr	r3, [pc, #44]	@ (8000530 <q_get+0x4c>)
 8000504:	5c9a      	ldrb	r2, [r3, r2]
 8000506:	687b      	ldr	r3, [r7, #4]
 8000508:	701a      	strb	r2, [r3, #0]
 800050a:	4b07      	ldr	r3, [pc, #28]	@ (8000528 <q_get+0x44>)
 800050c:	781b      	ldrb	r3, [r3, #0]
 800050e:	3301      	adds	r3, #1
 8000510:	b2db      	uxtb	r3, r3
 8000512:	220f      	movs	r2, #15
 8000514:	4013      	ands	r3, r2
 8000516:	b2da      	uxtb	r2, r3
 8000518:	4b03      	ldr	r3, [pc, #12]	@ (8000528 <q_get+0x44>)
 800051a:	701a      	strb	r2, [r3, #0]
 800051c:	2301      	movs	r3, #1
 800051e:	0018      	movs	r0, r3
 8000520:	46bd      	mov	sp, r7
 8000522:	b002      	add	sp, #8
 8000524:	bd80      	pop	{r7, pc}
 8000526:	46c0      	nop			@ (mov r8, r8)
 8000528:	200000b9 	.word	0x200000b9
 800052c:	200000b8 	.word	0x200000b8
 8000530:	200000a8 	.word	0x200000a8

08000534 <buzzer_beep>:

/* ======== BUZZER ======== */
static uint8_t  bz_state=0;
static uint16_t on_t=0, off_ticks=0, left_beeps=0;

static inline void buzzer_beep(uint8_t n, uint16_t on_ticks, uint16_t off_ticks_v){
 8000534:	b590      	push	{r4, r7, lr}
 8000536:	b083      	sub	sp, #12
 8000538:	af00      	add	r7, sp, #0
 800053a:	0004      	movs	r4, r0
 800053c:	0008      	movs	r0, r1
 800053e:	0011      	movs	r1, r2
 8000540:	1dfb      	adds	r3, r7, #7
 8000542:	1c22      	adds	r2, r4, #0
 8000544:	701a      	strb	r2, [r3, #0]
 8000546:	1d3b      	adds	r3, r7, #4
 8000548:	1c02      	adds	r2, r0, #0
 800054a:	801a      	strh	r2, [r3, #0]
 800054c:	1cbb      	adds	r3, r7, #2
 800054e:	1c0a      	adds	r2, r1, #0
 8000550:	801a      	strh	r2, [r3, #0]
  bz_state=1; on_t=on_ticks; off_ticks=off_ticks_v; left_beeps=n;
 8000552:	4b0a      	ldr	r3, [pc, #40]	@ (800057c <buzzer_beep+0x48>)
 8000554:	2201      	movs	r2, #1
 8000556:	701a      	strb	r2, [r3, #0]
 8000558:	4b09      	ldr	r3, [pc, #36]	@ (8000580 <buzzer_beep+0x4c>)
 800055a:	1d3a      	adds	r2, r7, #4
 800055c:	8812      	ldrh	r2, [r2, #0]
 800055e:	801a      	strh	r2, [r3, #0]
 8000560:	4b08      	ldr	r3, [pc, #32]	@ (8000584 <buzzer_beep+0x50>)
 8000562:	1cba      	adds	r2, r7, #2
 8000564:	8812      	ldrh	r2, [r2, #0]
 8000566:	801a      	strh	r2, [r3, #0]
 8000568:	1dfb      	adds	r3, r7, #7
 800056a:	781b      	ldrb	r3, [r3, #0]
 800056c:	b29a      	uxth	r2, r3
 800056e:	4b06      	ldr	r3, [pc, #24]	@ (8000588 <buzzer_beep+0x54>)
 8000570:	801a      	strh	r2, [r3, #0]
}
 8000572:	46c0      	nop			@ (mov r8, r8)
 8000574:	46bd      	mov	sp, r7
 8000576:	b003      	add	sp, #12
 8000578:	bd90      	pop	{r4, r7, pc}
 800057a:	46c0      	nop			@ (mov r8, r8)
 800057c:	200000d0 	.word	0x200000d0
 8000580:	200000d2 	.word	0x200000d2
 8000584:	200000d4 	.word	0x200000d4
 8000588:	200000d6 	.word	0x200000d6

0800058c <buzzer_beep3>:
static inline void buzzer_beep3(void){ buzzer_beep(3,30,30); }
 800058c:	b580      	push	{r7, lr}
 800058e:	af00      	add	r7, sp, #0
 8000590:	221e      	movs	r2, #30
 8000592:	211e      	movs	r1, #30
 8000594:	2003      	movs	r0, #3
 8000596:	f7ff ffcd 	bl	8000534 <buzzer_beep>
 800059a:	46c0      	nop			@ (mov r8, r8)
 800059c:	46bd      	mov	sp, r7
 800059e:	bd80      	pop	{r7, pc}

080005a0 <buzzer_beep1>:
static inline void buzzer_beep1(void){ buzzer_beep(1,18,25); }
 80005a0:	b580      	push	{r7, lr}
 80005a2:	af00      	add	r7, sp, #0
 80005a4:	2219      	movs	r2, #25
 80005a6:	2112      	movs	r1, #18
 80005a8:	2001      	movs	r0, #1
 80005aa:	f7ff ffc3 	bl	8000534 <buzzer_beep>
 80005ae:	46c0      	nop			@ (mov r8, r8)
 80005b0:	46bd      	mov	sp, r7
 80005b2:	bd80      	pop	{r7, pc}

080005b4 <buzzer_init>:

static void buzzer_init(void){ gpio_clr(GPIOA,GPIO_PIN_12); }
 80005b4:	b580      	push	{r7, lr}
 80005b6:	af00      	add	r7, sp, #0
 80005b8:	2380      	movs	r3, #128	@ 0x80
 80005ba:	015a      	lsls	r2, r3, #5
 80005bc:	23a0      	movs	r3, #160	@ 0xa0
 80005be:	05db      	lsls	r3, r3, #23
 80005c0:	0011      	movs	r1, r2
 80005c2:	0018      	movs	r0, r3
 80005c4:	f7ff ff46 	bl	8000454 <gpio_clr>
 80005c8:	46c0      	nop			@ (mov r8, r8)
 80005ca:	46bd      	mov	sp, r7
 80005cc:	bd80      	pop	{r7, pc}
	...

080005d0 <buzzer_tick_5ms>:
static void buzzer_tick_5ms(void){
 80005d0:	b580      	push	{r7, lr}
 80005d2:	af00      	add	r7, sp, #0
  switch(bz_state){
 80005d4:	4b32      	ldr	r3, [pc, #200]	@ (80006a0 <buzzer_tick_5ms+0xd0>)
 80005d6:	781b      	ldrb	r3, [r3, #0]
 80005d8:	2b02      	cmp	r3, #2
 80005da:	d024      	beq.n	8000626 <buzzer_tick_5ms+0x56>
 80005dc:	dc5d      	bgt.n	800069a <buzzer_tick_5ms+0xca>
 80005de:	2b00      	cmp	r3, #0
 80005e0:	d05a      	beq.n	8000698 <buzzer_tick_5ms+0xc8>
 80005e2:	2b01      	cmp	r3, #1
 80005e4:	d000      	beq.n	80005e8 <buzzer_tick_5ms+0x18>
      } else {
        off_ticks--;
      }
      break;
  }
}
 80005e6:	e058      	b.n	800069a <buzzer_tick_5ms+0xca>
      if(on_t==0){ gpio_set(GPIOA,GPIO_PIN_12); bz_state=2; }
 80005e8:	4b2e      	ldr	r3, [pc, #184]	@ (80006a4 <buzzer_tick_5ms+0xd4>)
 80005ea:	881b      	ldrh	r3, [r3, #0]
 80005ec:	2b00      	cmp	r3, #0
 80005ee:	d10b      	bne.n	8000608 <buzzer_tick_5ms+0x38>
 80005f0:	2380      	movs	r3, #128	@ 0x80
 80005f2:	015a      	lsls	r2, r3, #5
 80005f4:	23a0      	movs	r3, #160	@ 0xa0
 80005f6:	05db      	lsls	r3, r3, #23
 80005f8:	0011      	movs	r1, r2
 80005fa:	0018      	movs	r0, r3
 80005fc:	f7ff ff1e 	bl	800043c <gpio_set>
 8000600:	4b27      	ldr	r3, [pc, #156]	@ (80006a0 <buzzer_tick_5ms+0xd0>)
 8000602:	2202      	movs	r2, #2
 8000604:	701a      	strb	r2, [r3, #0]
      break;
 8000606:	e048      	b.n	800069a <buzzer_tick_5ms+0xca>
      else { gpio_clr(GPIOA,GPIO_PIN_12); on_t--; }
 8000608:	2380      	movs	r3, #128	@ 0x80
 800060a:	015a      	lsls	r2, r3, #5
 800060c:	23a0      	movs	r3, #160	@ 0xa0
 800060e:	05db      	lsls	r3, r3, #23
 8000610:	0011      	movs	r1, r2
 8000612:	0018      	movs	r0, r3
 8000614:	f7ff ff1e 	bl	8000454 <gpio_clr>
 8000618:	4b22      	ldr	r3, [pc, #136]	@ (80006a4 <buzzer_tick_5ms+0xd4>)
 800061a:	881b      	ldrh	r3, [r3, #0]
 800061c:	3b01      	subs	r3, #1
 800061e:	b29a      	uxth	r2, r3
 8000620:	4b20      	ldr	r3, [pc, #128]	@ (80006a4 <buzzer_tick_5ms+0xd4>)
 8000622:	801a      	strh	r2, [r3, #0]
      break;
 8000624:	e039      	b.n	800069a <buzzer_tick_5ms+0xca>
      if(off_ticks==0){
 8000626:	4b20      	ldr	r3, [pc, #128]	@ (80006a8 <buzzer_tick_5ms+0xd8>)
 8000628:	881b      	ldrh	r3, [r3, #0]
 800062a:	2b00      	cmp	r3, #0
 800062c:	d12d      	bne.n	800068a <buzzer_tick_5ms+0xba>
        if(--left_beeps==0){ gpio_clr(GPIOA,GPIO_PIN_12); bz_state=0; }
 800062e:	4b1f      	ldr	r3, [pc, #124]	@ (80006ac <buzzer_tick_5ms+0xdc>)
 8000630:	881b      	ldrh	r3, [r3, #0]
 8000632:	3b01      	subs	r3, #1
 8000634:	b29a      	uxth	r2, r3
 8000636:	4b1d      	ldr	r3, [pc, #116]	@ (80006ac <buzzer_tick_5ms+0xdc>)
 8000638:	801a      	strh	r2, [r3, #0]
 800063a:	4b1c      	ldr	r3, [pc, #112]	@ (80006ac <buzzer_tick_5ms+0xdc>)
 800063c:	881b      	ldrh	r3, [r3, #0]
 800063e:	2b00      	cmp	r3, #0
 8000640:	d10b      	bne.n	800065a <buzzer_tick_5ms+0x8a>
 8000642:	2380      	movs	r3, #128	@ 0x80
 8000644:	015a      	lsls	r2, r3, #5
 8000646:	23a0      	movs	r3, #160	@ 0xa0
 8000648:	05db      	lsls	r3, r3, #23
 800064a:	0011      	movs	r1, r2
 800064c:	0018      	movs	r0, r3
 800064e:	f7ff ff01 	bl	8000454 <gpio_clr>
 8000652:	4b13      	ldr	r3, [pc, #76]	@ (80006a0 <buzzer_tick_5ms+0xd0>)
 8000654:	2200      	movs	r2, #0
 8000656:	701a      	strb	r2, [r3, #0]
      break;
 8000658:	e01f      	b.n	800069a <buzzer_tick_5ms+0xca>
        else { bz_state=1; on_t = (on_t?on_t:18); off_ticks = (off_ticks?off_ticks:25); }
 800065a:	4b11      	ldr	r3, [pc, #68]	@ (80006a0 <buzzer_tick_5ms+0xd0>)
 800065c:	2201      	movs	r2, #1
 800065e:	701a      	strb	r2, [r3, #0]
 8000660:	4b10      	ldr	r3, [pc, #64]	@ (80006a4 <buzzer_tick_5ms+0xd4>)
 8000662:	881b      	ldrh	r3, [r3, #0]
 8000664:	2b00      	cmp	r3, #0
 8000666:	d002      	beq.n	800066e <buzzer_tick_5ms+0x9e>
 8000668:	4b0e      	ldr	r3, [pc, #56]	@ (80006a4 <buzzer_tick_5ms+0xd4>)
 800066a:	881a      	ldrh	r2, [r3, #0]
 800066c:	e000      	b.n	8000670 <buzzer_tick_5ms+0xa0>
 800066e:	2212      	movs	r2, #18
 8000670:	4b0c      	ldr	r3, [pc, #48]	@ (80006a4 <buzzer_tick_5ms+0xd4>)
 8000672:	801a      	strh	r2, [r3, #0]
 8000674:	4b0c      	ldr	r3, [pc, #48]	@ (80006a8 <buzzer_tick_5ms+0xd8>)
 8000676:	881b      	ldrh	r3, [r3, #0]
 8000678:	2b00      	cmp	r3, #0
 800067a:	d002      	beq.n	8000682 <buzzer_tick_5ms+0xb2>
 800067c:	4b0a      	ldr	r3, [pc, #40]	@ (80006a8 <buzzer_tick_5ms+0xd8>)
 800067e:	881a      	ldrh	r2, [r3, #0]
 8000680:	e000      	b.n	8000684 <buzzer_tick_5ms+0xb4>
 8000682:	2219      	movs	r2, #25
 8000684:	4b08      	ldr	r3, [pc, #32]	@ (80006a8 <buzzer_tick_5ms+0xd8>)
 8000686:	801a      	strh	r2, [r3, #0]
      break;
 8000688:	e007      	b.n	800069a <buzzer_tick_5ms+0xca>
        off_ticks--;
 800068a:	4b07      	ldr	r3, [pc, #28]	@ (80006a8 <buzzer_tick_5ms+0xd8>)
 800068c:	881b      	ldrh	r3, [r3, #0]
 800068e:	3b01      	subs	r3, #1
 8000690:	b29a      	uxth	r2, r3
 8000692:	4b05      	ldr	r3, [pc, #20]	@ (80006a8 <buzzer_tick_5ms+0xd8>)
 8000694:	801a      	strh	r2, [r3, #0]
      break;
 8000696:	e000      	b.n	800069a <buzzer_tick_5ms+0xca>
    case 0: break;
 8000698:	46c0      	nop			@ (mov r8, r8)
}
 800069a:	46c0      	nop			@ (mov r8, r8)
 800069c:	46bd      	mov	sp, r7
 800069e:	bd80      	pop	{r7, pc}
 80006a0:	200000d0 	.word	0x200000d0
 80006a4:	200000d2 	.word	0x200000d2
 80006a8:	200000d4 	.word	0x200000d4
 80006ac:	200000d6 	.word	0x200000d6

080006b0 <stepper_coils_write>:

/* ===== Stepper funcs ===== */
static inline void stepper_coils_write(uint8_t m){
 80006b0:	b580      	push	{r7, lr}
 80006b2:	b082      	sub	sp, #8
 80006b4:	af00      	add	r7, sp, #0
 80006b6:	0002      	movs	r2, r0
 80006b8:	1dfb      	adds	r3, r7, #7
 80006ba:	701a      	strb	r2, [r3, #0]
  if(m & 0x01) gpio_set(STP_PORT, STP_IN1); else gpio_clr(STP_PORT, STP_IN1);
 80006bc:	1dfb      	adds	r3, r7, #7
 80006be:	781b      	ldrb	r3, [r3, #0]
 80006c0:	2201      	movs	r2, #1
 80006c2:	4013      	ands	r3, r2
 80006c4:	d005      	beq.n	80006d2 <stepper_coils_write+0x22>
 80006c6:	4b1f      	ldr	r3, [pc, #124]	@ (8000744 <stepper_coils_write+0x94>)
 80006c8:	2108      	movs	r1, #8
 80006ca:	0018      	movs	r0, r3
 80006cc:	f7ff feb6 	bl	800043c <gpio_set>
 80006d0:	e004      	b.n	80006dc <stepper_coils_write+0x2c>
 80006d2:	4b1c      	ldr	r3, [pc, #112]	@ (8000744 <stepper_coils_write+0x94>)
 80006d4:	2108      	movs	r1, #8
 80006d6:	0018      	movs	r0, r3
 80006d8:	f7ff febc 	bl	8000454 <gpio_clr>
  if(m & 0x02) gpio_set(STP_PORT, STP_IN2); else gpio_clr(STP_PORT, STP_IN2);
 80006dc:	1dfb      	adds	r3, r7, #7
 80006de:	781b      	ldrb	r3, [r3, #0]
 80006e0:	2202      	movs	r2, #2
 80006e2:	4013      	ands	r3, r2
 80006e4:	d005      	beq.n	80006f2 <stepper_coils_write+0x42>
 80006e6:	4b17      	ldr	r3, [pc, #92]	@ (8000744 <stepper_coils_write+0x94>)
 80006e8:	2110      	movs	r1, #16
 80006ea:	0018      	movs	r0, r3
 80006ec:	f7ff fea6 	bl	800043c <gpio_set>
 80006f0:	e004      	b.n	80006fc <stepper_coils_write+0x4c>
 80006f2:	4b14      	ldr	r3, [pc, #80]	@ (8000744 <stepper_coils_write+0x94>)
 80006f4:	2110      	movs	r1, #16
 80006f6:	0018      	movs	r0, r3
 80006f8:	f7ff feac 	bl	8000454 <gpio_clr>
  if(m & 0x04) gpio_set(STP_PORT, STP_IN3); else gpio_clr(STP_PORT, STP_IN3);
 80006fc:	1dfb      	adds	r3, r7, #7
 80006fe:	781b      	ldrb	r3, [r3, #0]
 8000700:	2204      	movs	r2, #4
 8000702:	4013      	ands	r3, r2
 8000704:	d005      	beq.n	8000712 <stepper_coils_write+0x62>
 8000706:	4b0f      	ldr	r3, [pc, #60]	@ (8000744 <stepper_coils_write+0x94>)
 8000708:	2120      	movs	r1, #32
 800070a:	0018      	movs	r0, r3
 800070c:	f7ff fe96 	bl	800043c <gpio_set>
 8000710:	e004      	b.n	800071c <stepper_coils_write+0x6c>
 8000712:	4b0c      	ldr	r3, [pc, #48]	@ (8000744 <stepper_coils_write+0x94>)
 8000714:	2120      	movs	r1, #32
 8000716:	0018      	movs	r0, r3
 8000718:	f7ff fe9c 	bl	8000454 <gpio_clr>
  if(m & 0x08) gpio_set(STP_PORT, STP_IN4); else gpio_clr(STP_PORT, STP_IN4);
 800071c:	1dfb      	adds	r3, r7, #7
 800071e:	781b      	ldrb	r3, [r3, #0]
 8000720:	2208      	movs	r2, #8
 8000722:	4013      	ands	r3, r2
 8000724:	d005      	beq.n	8000732 <stepper_coils_write+0x82>
 8000726:	4b07      	ldr	r3, [pc, #28]	@ (8000744 <stepper_coils_write+0x94>)
 8000728:	2140      	movs	r1, #64	@ 0x40
 800072a:	0018      	movs	r0, r3
 800072c:	f7ff fe86 	bl	800043c <gpio_set>
}
 8000730:	e004      	b.n	800073c <stepper_coils_write+0x8c>
  if(m & 0x08) gpio_set(STP_PORT, STP_IN4); else gpio_clr(STP_PORT, STP_IN4);
 8000732:	4b04      	ldr	r3, [pc, #16]	@ (8000744 <stepper_coils_write+0x94>)
 8000734:	2140      	movs	r1, #64	@ 0x40
 8000736:	0018      	movs	r0, r3
 8000738:	f7ff fe8c 	bl	8000454 <gpio_clr>
}
 800073c:	46c0      	nop			@ (mov r8, r8)
 800073e:	46bd      	mov	sp, r7
 8000740:	b002      	add	sp, #8
 8000742:	bd80      	pop	{r7, pc}
 8000744:	50000400 	.word	0x50000400

08000748 <stepper_enable_power>:
static inline void stepper_enable_power(uint8_t on){
 8000748:	b580      	push	{r7, lr}
 800074a:	b082      	sub	sp, #8
 800074c:	af00      	add	r7, sp, #0
 800074e:	0002      	movs	r2, r0
 8000750:	1dfb      	adds	r3, r7, #7
 8000752:	701a      	strb	r2, [r3, #0]
  if(on){ gpio_set(MOTOR_EN_PORT, MOTOR_EN_PIN); }
 8000754:	1dfb      	adds	r3, r7, #7
 8000756:	781b      	ldrb	r3, [r3, #0]
 8000758:	2b00      	cmp	r3, #0
 800075a:	d006      	beq.n	800076a <stepper_enable_power+0x22>
 800075c:	23a0      	movs	r3, #160	@ 0xa0
 800075e:	05db      	lsls	r3, r3, #23
 8000760:	2101      	movs	r1, #1
 8000762:	0018      	movs	r0, r3
 8000764:	f7ff fe6a 	bl	800043c <gpio_set>
  else  { gpio_clr(MOTOR_EN_PORT, MOTOR_EN_PIN); }
}
 8000768:	e005      	b.n	8000776 <stepper_enable_power+0x2e>
  else  { gpio_clr(MOTOR_EN_PORT, MOTOR_EN_PIN); }
 800076a:	23a0      	movs	r3, #160	@ 0xa0
 800076c:	05db      	lsls	r3, r3, #23
 800076e:	2101      	movs	r1, #1
 8000770:	0018      	movs	r0, r3
 8000772:	f7ff fe6f 	bl	8000454 <gpio_clr>
}
 8000776:	46c0      	nop			@ (mov r8, r8)
 8000778:	46bd      	mov	sp, r7
 800077a:	b002      	add	sp, #8
 800077c:	bd80      	pop	{r7, pc}
	...

08000780 <stepper_start>:
static inline void stepper_start(void){
 8000780:	b580      	push	{r7, lr}
 8000782:	af00      	add	r7, sp, #0
  stp_enable = 1; stp_acc = 0;
 8000784:	4b09      	ldr	r3, [pc, #36]	@ (80007ac <stepper_start+0x2c>)
 8000786:	2201      	movs	r2, #1
 8000788:	701a      	strb	r2, [r3, #0]
 800078a:	4b09      	ldr	r3, [pc, #36]	@ (80007b0 <stepper_start+0x30>)
 800078c:	2200      	movs	r2, #0
 800078e:	801a      	strh	r2, [r3, #0]
  stepper_enable_power(1);
 8000790:	2001      	movs	r0, #1
 8000792:	f7ff ffd9 	bl	8000748 <stepper_enable_power>
  stepper_coils_write(STEP_SEQ[stp_phase]);
 8000796:	4b07      	ldr	r3, [pc, #28]	@ (80007b4 <stepper_start+0x34>)
 8000798:	781b      	ldrb	r3, [r3, #0]
 800079a:	001a      	movs	r2, r3
 800079c:	4b06      	ldr	r3, [pc, #24]	@ (80007b8 <stepper_start+0x38>)
 800079e:	5c9b      	ldrb	r3, [r3, r2]
 80007a0:	0018      	movs	r0, r3
 80007a2:	f7ff ff85 	bl	80006b0 <stepper_coils_write>
}
 80007a6:	46c0      	nop			@ (mov r8, r8)
 80007a8:	46bd      	mov	sp, r7
 80007aa:	bd80      	pop	{r7, pc}
 80007ac:	20000099 	.word	0x20000099
 80007b0:	2000009a 	.word	0x2000009a
 80007b4:	20000098 	.word	0x20000098
 80007b8:	08002b08 	.word	0x08002b08

080007bc <stepper_stop>:
static inline void stepper_stop(void){
 80007bc:	b580      	push	{r7, lr}
 80007be:	af00      	add	r7, sp, #0
  stp_enable = 0;
 80007c0:	4b05      	ldr	r3, [pc, #20]	@ (80007d8 <stepper_stop+0x1c>)
 80007c2:	2200      	movs	r2, #0
 80007c4:	701a      	strb	r2, [r3, #0]
  stepper_coils_write(0);
 80007c6:	2000      	movs	r0, #0
 80007c8:	f7ff ff72 	bl	80006b0 <stepper_coils_write>
  stepper_enable_power(0);
 80007cc:	2000      	movs	r0, #0
 80007ce:	f7ff ffbb 	bl	8000748 <stepper_enable_power>
}
 80007d2:	46c0      	nop			@ (mov r8, r8)
 80007d4:	46bd      	mov	sp, r7
 80007d6:	bd80      	pop	{r7, pc}
 80007d8:	20000099 	.word	0x20000099

080007dc <stepper_tick_5ms>:
static void stepper_tick_5ms(void){
 80007dc:	b580      	push	{r7, lr}
 80007de:	af00      	add	r7, sp, #0
  if(!stp_enable) return;
 80007e0:	4b1c      	ldr	r3, [pc, #112]	@ (8000854 <stepper_tick_5ms+0x78>)
 80007e2:	781b      	ldrb	r3, [r3, #0]
 80007e4:	2b00      	cmp	r3, #0
 80007e6:	d032      	beq.n	800084e <stepper_tick_5ms+0x72>
  stp_acc += STEPPER_SPS;           /* 200 ticks de 5 ms por segundo */
 80007e8:	4b1b      	ldr	r3, [pc, #108]	@ (8000858 <stepper_tick_5ms+0x7c>)
 80007ea:	881b      	ldrh	r3, [r3, #0]
 80007ec:	3396      	adds	r3, #150	@ 0x96
 80007ee:	33ff      	adds	r3, #255	@ 0xff
 80007f0:	b29a      	uxth	r2, r3
 80007f2:	4b19      	ldr	r3, [pc, #100]	@ (8000858 <stepper_tick_5ms+0x7c>)
 80007f4:	801a      	strh	r2, [r3, #0]
  while(stp_acc >= 200){
 80007f6:	e025      	b.n	8000844 <stepper_tick_5ms+0x68>
    stp_acc -= 200;
 80007f8:	4b17      	ldr	r3, [pc, #92]	@ (8000858 <stepper_tick_5ms+0x7c>)
 80007fa:	881b      	ldrh	r3, [r3, #0]
 80007fc:	3bc8      	subs	r3, #200	@ 0xc8
 80007fe:	b29a      	uxth	r2, r3
 8000800:	4b15      	ldr	r3, [pc, #84]	@ (8000858 <stepper_tick_5ms+0x7c>)
 8000802:	801a      	strh	r2, [r3, #0]
    if(stp_dir > 0){
 8000804:	4b15      	ldr	r3, [pc, #84]	@ (800085c <stepper_tick_5ms+0x80>)
 8000806:	781b      	ldrb	r3, [r3, #0]
 8000808:	b25b      	sxtb	r3, r3
 800080a:	2b00      	cmp	r3, #0
 800080c:	dd09      	ble.n	8000822 <stepper_tick_5ms+0x46>
      stp_phase = (uint8_t)((stp_phase + 1) & 7);   /* horario */
 800080e:	4b14      	ldr	r3, [pc, #80]	@ (8000860 <stepper_tick_5ms+0x84>)
 8000810:	781b      	ldrb	r3, [r3, #0]
 8000812:	3301      	adds	r3, #1
 8000814:	b2db      	uxtb	r3, r3
 8000816:	2207      	movs	r2, #7
 8000818:	4013      	ands	r3, r2
 800081a:	b2da      	uxtb	r2, r3
 800081c:	4b10      	ldr	r3, [pc, #64]	@ (8000860 <stepper_tick_5ms+0x84>)
 800081e:	701a      	strb	r2, [r3, #0]
 8000820:	e008      	b.n	8000834 <stepper_tick_5ms+0x58>
    }else{
      stp_phase = (uint8_t)((stp_phase + 7) & 7);   /* antihorario */
 8000822:	4b0f      	ldr	r3, [pc, #60]	@ (8000860 <stepper_tick_5ms+0x84>)
 8000824:	781b      	ldrb	r3, [r3, #0]
 8000826:	3307      	adds	r3, #7
 8000828:	b2db      	uxtb	r3, r3
 800082a:	2207      	movs	r2, #7
 800082c:	4013      	ands	r3, r2
 800082e:	b2da      	uxtb	r2, r3
 8000830:	4b0b      	ldr	r3, [pc, #44]	@ (8000860 <stepper_tick_5ms+0x84>)
 8000832:	701a      	strb	r2, [r3, #0]
    }
    stepper_coils_write(STEP_SEQ[stp_phase]);
 8000834:	4b0a      	ldr	r3, [pc, #40]	@ (8000860 <stepper_tick_5ms+0x84>)
 8000836:	781b      	ldrb	r3, [r3, #0]
 8000838:	001a      	movs	r2, r3
 800083a:	4b0a      	ldr	r3, [pc, #40]	@ (8000864 <stepper_tick_5ms+0x88>)
 800083c:	5c9b      	ldrb	r3, [r3, r2]
 800083e:	0018      	movs	r0, r3
 8000840:	f7ff ff36 	bl	80006b0 <stepper_coils_write>
  while(stp_acc >= 200){
 8000844:	4b04      	ldr	r3, [pc, #16]	@ (8000858 <stepper_tick_5ms+0x7c>)
 8000846:	881b      	ldrh	r3, [r3, #0]
 8000848:	2bc7      	cmp	r3, #199	@ 0xc7
 800084a:	d8d5      	bhi.n	80007f8 <stepper_tick_5ms+0x1c>
 800084c:	e000      	b.n	8000850 <stepper_tick_5ms+0x74>
  if(!stp_enable) return;
 800084e:	46c0      	nop			@ (mov r8, r8)
  }
}
 8000850:	46bd      	mov	sp, r7
 8000852:	bd80      	pop	{r7, pc}
 8000854:	20000099 	.word	0x20000099
 8000858:	2000009a 	.word	0x2000009a
 800085c:	20000000 	.word	0x20000000
 8000860:	20000098 	.word	0x20000098
 8000864:	08002b08 	.word	0x08002b08

08000868 <door_tick_5ms>:

/* ===== Debounce puerta: 5 ms/tick, ~50 ms ===== */
static void door_tick_5ms(void){
 8000868:	b580      	push	{r7, lr}
 800086a:	b082      	sub	sp, #8
 800086c:	af00      	add	r7, sp, #0
  uint8_t raw = gpio_rd(DOOR_PORT, DOOR_PIN) ? 1u : 0u; /* 1=suelto, 0=presionado */
 800086e:	4b1a      	ldr	r3, [pc, #104]	@ (80008d8 <door_tick_5ms+0x70>)
 8000870:	2180      	movs	r1, #128	@ 0x80
 8000872:	0018      	movs	r0, r3
 8000874:	f7ff fdfa 	bl	800046c <gpio_rd>
 8000878:	1e03      	subs	r3, r0, #0
 800087a:	d001      	beq.n	8000880 <door_tick_5ms+0x18>
 800087c:	2201      	movs	r2, #1
 800087e:	e000      	b.n	8000882 <door_tick_5ms+0x1a>
 8000880:	2200      	movs	r2, #0
 8000882:	1dfb      	adds	r3, r7, #7
 8000884:	701a      	strb	r2, [r3, #0]
  static uint8_t stable = 1;
  static uint8_t cnt = 0;

  if(raw != stable){
 8000886:	4b15      	ldr	r3, [pc, #84]	@ (80008dc <door_tick_5ms+0x74>)
 8000888:	781b      	ldrb	r3, [r3, #0]
 800088a:	1dfa      	adds	r2, r7, #7
 800088c:	7812      	ldrb	r2, [r2, #0]
 800088e:	429a      	cmp	r2, r3
 8000890:	d01a      	beq.n	80008c8 <door_tick_5ms+0x60>
    if(++cnt >= 10){             /* ~50 ms */
 8000892:	4b13      	ldr	r3, [pc, #76]	@ (80008e0 <door_tick_5ms+0x78>)
 8000894:	781b      	ldrb	r3, [r3, #0]
 8000896:	3301      	adds	r3, #1
 8000898:	b2da      	uxtb	r2, r3
 800089a:	4b11      	ldr	r3, [pc, #68]	@ (80008e0 <door_tick_5ms+0x78>)
 800089c:	701a      	strb	r2, [r3, #0]
 800089e:	4b10      	ldr	r3, [pc, #64]	@ (80008e0 <door_tick_5ms+0x78>)
 80008a0:	781b      	ldrb	r3, [r3, #0]
 80008a2:	2b09      	cmp	r3, #9
 80008a4:	d913      	bls.n	80008ce <door_tick_5ms+0x66>
      stable = raw; cnt = 0;
 80008a6:	4b0d      	ldr	r3, [pc, #52]	@ (80008dc <door_tick_5ms+0x74>)
 80008a8:	1dfa      	adds	r2, r7, #7
 80008aa:	7812      	ldrb	r2, [r2, #0]
 80008ac:	701a      	strb	r2, [r3, #0]
 80008ae:	4b0c      	ldr	r3, [pc, #48]	@ (80008e0 <door_tick_5ms+0x78>)
 80008b0:	2200      	movs	r2, #0
 80008b2:	701a      	strb	r2, [r3, #0]
      door_closed = (stable == 0) ? 1u : 0u;
 80008b4:	4b09      	ldr	r3, [pc, #36]	@ (80008dc <door_tick_5ms+0x74>)
 80008b6:	781b      	ldrb	r3, [r3, #0]
 80008b8:	2b00      	cmp	r3, #0
 80008ba:	d101      	bne.n	80008c0 <door_tick_5ms+0x58>
 80008bc:	2201      	movs	r2, #1
 80008be:	e000      	b.n	80008c2 <door_tick_5ms+0x5a>
 80008c0:	2200      	movs	r2, #0
 80008c2:	4b08      	ldr	r3, [pc, #32]	@ (80008e4 <door_tick_5ms+0x7c>)
 80008c4:	701a      	strb	r2, [r3, #0]
    }
  } else {
    cnt = 0;
  }
}
 80008c6:	e002      	b.n	80008ce <door_tick_5ms+0x66>
    cnt = 0;
 80008c8:	4b05      	ldr	r3, [pc, #20]	@ (80008e0 <door_tick_5ms+0x78>)
 80008ca:	2200      	movs	r2, #0
 80008cc:	701a      	strb	r2, [r3, #0]
}
 80008ce:	46c0      	nop			@ (mov r8, r8)
 80008d0:	46bd      	mov	sp, r7
 80008d2:	b002      	add	sp, #8
 80008d4:	bd80      	pop	{r7, pc}
 80008d6:	46c0      	nop			@ (mov r8, r8)
 80008d8:	50000400 	.word	0x50000400
 80008dc:	20000014 	.word	0x20000014
 80008e0:	200000e0 	.word	0x200000e0
 80008e4:	20000001 	.word	0x20000001

080008e8 <main>:

/* ====================== MAIN ====================== */
int main(void){
 80008e8:	b580      	push	{r7, lr}
 80008ea:	af00      	add	r7, sp, #0
  clock_init();
 80008ec:	f000 f85e 	bl	80009ac <clock_init>
  gpio_init();
 80008f0:	f000 f8bc 	bl	8000a6c <gpio_init>
  tim21_init_5ms();
 80008f4:	f000 f882 	bl	80009fc <tim21_init_5ms>
  buzzer_init();
 80008f8:	f7ff fe5c 	bl	80005b4 <buzzer_init>

  lcd_init_blocking();
 80008fc:	f000 fbd8 	bl	80010b0 <lcd_init_blocking>
  lcd_clear();
 8000900:	f000 fc2c 	bl	800115c <lcd_clear>
  lcd_goto(0,0); lcd_puts("A=Tiempo B=Temp");
 8000904:	2100      	movs	r1, #0
 8000906:	2000      	movs	r0, #0
 8000908:	f000 fc30 	bl	800116c <lcd_goto>
 800090c:	4b22      	ldr	r3, [pc, #136]	@ (8000998 <main+0xb0>)
 800090e:	0018      	movs	r0, r3
 8000910:	f000 fc47 	bl	80011a2 <lcd_puts>
  lcd_goto(0,1); lcd_puts("Temp: --C");
 8000914:	2101      	movs	r1, #1
 8000916:	2000      	movs	r0, #0
 8000918:	f000 fc28 	bl	800116c <lcd_goto>
 800091c:	4b1f      	ldr	r3, [pc, #124]	@ (800099c <main+0xb4>)
 800091e:	0018      	movs	r0, r3
 8000920:	f000 fc3f 	bl	80011a2 <lcd_puts>

  show_time_7seg(0);
 8000924:	2000      	movs	r0, #0
 8000926:	f000 fa4f 	bl	8000dc8 <show_time_7seg>
  \details Enables IRQ interrupts by clearing the I-bit in the CPSR.
           Can only be executed in Privileged modes.
 */
__STATIC_FORCEINLINE void __enable_irq(void)
{
  __ASM volatile ("cpsie i" : : : "memory");
 800092a:	b662      	cpsie	i
}
 800092c:	46c0      	nop			@ (mov r8, r8)
  __enable_irq();

  for(;;){
    if(tick5ms){
 800092e:	4b1c      	ldr	r3, [pc, #112]	@ (80009a0 <main+0xb8>)
 8000930:	781b      	ldrb	r3, [r3, #0]
 8000932:	b2db      	uxtb	r3, r3
 8000934:	2b00      	cmp	r3, #0
 8000936:	d0fa      	beq.n	800092e <main+0x46>
      tick5ms=0;
 8000938:	4b19      	ldr	r3, [pc, #100]	@ (80009a0 <main+0xb8>)
 800093a:	2200      	movs	r2, #0
 800093c:	701a      	strb	r2, [r3, #0]
      keypad_tick_5ms();
 800093e:	f000 fc7f 	bl	8001240 <keypad_tick_5ms>
      lcd_tick_5ms();
 8000942:	f000 fe03 	bl	800154c <lcd_tick_5ms>
      buzzer_tick_5ms();
 8000946:	f7ff fe43 	bl	80005d0 <buzzer_tick_5ms>
      door_tick_5ms();
 800094a:	f7ff ff8d 	bl	8000868 <door_tick_5ms>
      fsm_tick_5ms();
 800094e:	f000 ff41 	bl	80017d4 <fsm_tick_5ms>
      stepper_tick_5ms();
 8000952:	f7ff ff43 	bl	80007dc <stepper_tick_5ms>

      /* multiplex 7-seg */
      seg_all_off();
 8000956:	f000 f9a1 	bl	8000c9c <seg_all_off>
      seg_set_segments(seg_code[mux_idx], (mux_idx==1)?1:0);
 800095a:	4b12      	ldr	r3, [pc, #72]	@ (80009a4 <main+0xbc>)
 800095c:	781b      	ldrb	r3, [r3, #0]
 800095e:	001a      	movs	r2, r3
 8000960:	4b11      	ldr	r3, [pc, #68]	@ (80009a8 <main+0xc0>)
 8000962:	5c9a      	ldrb	r2, [r3, r2]
 8000964:	4b0f      	ldr	r3, [pc, #60]	@ (80009a4 <main+0xbc>)
 8000966:	781b      	ldrb	r3, [r3, #0]
 8000968:	3b01      	subs	r3, #1
 800096a:	4259      	negs	r1, r3
 800096c:	414b      	adcs	r3, r1
 800096e:	b2db      	uxtb	r3, r3
 8000970:	0019      	movs	r1, r3
 8000972:	0010      	movs	r0, r2
 8000974:	f000 f9d6 	bl	8000d24 <seg_set_segments>
      seg_enable_digit(mux_idx);
 8000978:	4b0a      	ldr	r3, [pc, #40]	@ (80009a4 <main+0xbc>)
 800097a:	781b      	ldrb	r3, [r3, #0]
 800097c:	0018      	movs	r0, r3
 800097e:	f000 f99d 	bl	8000cbc <seg_enable_digit>
      mux_idx=(mux_idx+1)&3;
 8000982:	4b08      	ldr	r3, [pc, #32]	@ (80009a4 <main+0xbc>)
 8000984:	781b      	ldrb	r3, [r3, #0]
 8000986:	3301      	adds	r3, #1
 8000988:	b2db      	uxtb	r3, r3
 800098a:	2203      	movs	r2, #3
 800098c:	4013      	ands	r3, r2
 800098e:	b2da      	uxtb	r2, r3
 8000990:	4b04      	ldr	r3, [pc, #16]	@ (80009a4 <main+0xbc>)
 8000992:	701a      	strb	r2, [r3, #0]
    if(tick5ms){
 8000994:	e7cb      	b.n	800092e <main+0x46>
 8000996:	46c0      	nop			@ (mov r8, r8)
 8000998:	080029e4 	.word	0x080029e4
 800099c:	080029f4 	.word	0x080029f4
 80009a0:	2000009d 	.word	0x2000009d
 80009a4:	200000c0 	.word	0x200000c0
 80009a8:	200000bc 	.word	0x200000bc

080009ac <clock_init>:
    }
  }
}

/* ============ Reloj/Timers ============ */
static void clock_init(void){
 80009ac:	b580      	push	{r7, lr}
 80009ae:	af00      	add	r7, sp, #0
  RCC->CR |= RCC_CR_HSION; while(!(RCC->CR & RCC_CR_HSIRDY));
 80009b0:	4b11      	ldr	r3, [pc, #68]	@ (80009f8 <clock_init+0x4c>)
 80009b2:	681a      	ldr	r2, [r3, #0]
 80009b4:	4b10      	ldr	r3, [pc, #64]	@ (80009f8 <clock_init+0x4c>)
 80009b6:	2101      	movs	r1, #1
 80009b8:	430a      	orrs	r2, r1
 80009ba:	601a      	str	r2, [r3, #0]
 80009bc:	46c0      	nop			@ (mov r8, r8)
 80009be:	4b0e      	ldr	r3, [pc, #56]	@ (80009f8 <clock_init+0x4c>)
 80009c0:	681b      	ldr	r3, [r3, #0]
 80009c2:	2204      	movs	r2, #4
 80009c4:	4013      	ands	r3, r2
 80009c6:	d0fa      	beq.n	80009be <clock_init+0x12>
  RCC->CFGR = (RCC->CFGR & ~RCC_CFGR_SW) | RCC_CFGR_SW_HSI;
 80009c8:	4b0b      	ldr	r3, [pc, #44]	@ (80009f8 <clock_init+0x4c>)
 80009ca:	68db      	ldr	r3, [r3, #12]
 80009cc:	2203      	movs	r2, #3
 80009ce:	4393      	bics	r3, r2
 80009d0:	001a      	movs	r2, r3
 80009d2:	4b09      	ldr	r3, [pc, #36]	@ (80009f8 <clock_init+0x4c>)
 80009d4:	2101      	movs	r1, #1
 80009d6:	430a      	orrs	r2, r1
 80009d8:	60da      	str	r2, [r3, #12]
  RCC->IOPENR |= RCC_IOPENR_IOPAEN|RCC_IOPENR_IOPBEN|RCC_IOPENR_IOPCEN;
 80009da:	4b07      	ldr	r3, [pc, #28]	@ (80009f8 <clock_init+0x4c>)
 80009dc:	6ada      	ldr	r2, [r3, #44]	@ 0x2c
 80009de:	4b06      	ldr	r3, [pc, #24]	@ (80009f8 <clock_init+0x4c>)
 80009e0:	2107      	movs	r1, #7
 80009e2:	430a      	orrs	r2, r1
 80009e4:	62da      	str	r2, [r3, #44]	@ 0x2c
  RCC->APB2ENR |= RCC_APB2ENR_TIM21EN;
 80009e6:	4b04      	ldr	r3, [pc, #16]	@ (80009f8 <clock_init+0x4c>)
 80009e8:	6b5a      	ldr	r2, [r3, #52]	@ 0x34
 80009ea:	4b03      	ldr	r3, [pc, #12]	@ (80009f8 <clock_init+0x4c>)
 80009ec:	2104      	movs	r1, #4
 80009ee:	430a      	orrs	r2, r1
 80009f0:	635a      	str	r2, [r3, #52]	@ 0x34
}
 80009f2:	46c0      	nop			@ (mov r8, r8)
 80009f4:	46bd      	mov	sp, r7
 80009f6:	bd80      	pop	{r7, pc}
 80009f8:	40021000 	.word	0x40021000

080009fc <tim21_init_5ms>:
static void tim21_init_5ms(void){
 80009fc:	b580      	push	{r7, lr}
 80009fe:	af00      	add	r7, sp, #0
  TIM21->PSC=1599; TIM21->ARR=50-1; TIM21->CNT=0;
 8000a00:	4b0d      	ldr	r3, [pc, #52]	@ (8000a38 <tim21_init_5ms+0x3c>)
 8000a02:	4a0e      	ldr	r2, [pc, #56]	@ (8000a3c <tim21_init_5ms+0x40>)
 8000a04:	629a      	str	r2, [r3, #40]	@ 0x28
 8000a06:	4b0c      	ldr	r3, [pc, #48]	@ (8000a38 <tim21_init_5ms+0x3c>)
 8000a08:	2231      	movs	r2, #49	@ 0x31
 8000a0a:	62da      	str	r2, [r3, #44]	@ 0x2c
 8000a0c:	4b0a      	ldr	r3, [pc, #40]	@ (8000a38 <tim21_init_5ms+0x3c>)
 8000a0e:	2200      	movs	r2, #0
 8000a10:	625a      	str	r2, [r3, #36]	@ 0x24
  TIM21->DIER|=TIM_DIER_UIE; TIM21->CR1|=TIM_CR1_CEN;
 8000a12:	4b09      	ldr	r3, [pc, #36]	@ (8000a38 <tim21_init_5ms+0x3c>)
 8000a14:	68da      	ldr	r2, [r3, #12]
 8000a16:	4b08      	ldr	r3, [pc, #32]	@ (8000a38 <tim21_init_5ms+0x3c>)
 8000a18:	2101      	movs	r1, #1
 8000a1a:	430a      	orrs	r2, r1
 8000a1c:	60da      	str	r2, [r3, #12]
 8000a1e:	4b06      	ldr	r3, [pc, #24]	@ (8000a38 <tim21_init_5ms+0x3c>)
 8000a20:	681a      	ldr	r2, [r3, #0]
 8000a22:	4b05      	ldr	r3, [pc, #20]	@ (8000a38 <tim21_init_5ms+0x3c>)
 8000a24:	2101      	movs	r1, #1
 8000a26:	430a      	orrs	r2, r1
 8000a28:	601a      	str	r2, [r3, #0]
  NVIC_EnableIRQ(TIM21_IRQn);
 8000a2a:	2014      	movs	r0, #20
 8000a2c:	f7ff fcec 	bl	8000408 <__NVIC_EnableIRQ>
}
 8000a30:	46c0      	nop			@ (mov r8, r8)
 8000a32:	46bd      	mov	sp, r7
 8000a34:	bd80      	pop	{r7, pc}
 8000a36:	46c0      	nop			@ (mov r8, r8)
 8000a38:	40010800 	.word	0x40010800
 8000a3c:	0000063f 	.word	0x0000063f

08000a40 <TIM21_IRQHandler>:
void TIM21_IRQHandler(void){
 8000a40:	b580      	push	{r7, lr}
 8000a42:	af00      	add	r7, sp, #0
  if(TIM21->SR & TIM_SR_UIF){ TIM21->SR = ~TIM_SR_UIF; tick5ms=1; }
 8000a44:	4b07      	ldr	r3, [pc, #28]	@ (8000a64 <TIM21_IRQHandler+0x24>)
 8000a46:	691b      	ldr	r3, [r3, #16]
 8000a48:	2201      	movs	r2, #1
 8000a4a:	4013      	ands	r3, r2
 8000a4c:	d006      	beq.n	8000a5c <TIM21_IRQHandler+0x1c>
 8000a4e:	4b05      	ldr	r3, [pc, #20]	@ (8000a64 <TIM21_IRQHandler+0x24>)
 8000a50:	2202      	movs	r2, #2
 8000a52:	4252      	negs	r2, r2
 8000a54:	611a      	str	r2, [r3, #16]
 8000a56:	4b04      	ldr	r3, [pc, #16]	@ (8000a68 <TIM21_IRQHandler+0x28>)
 8000a58:	2201      	movs	r2, #1
 8000a5a:	701a      	strb	r2, [r3, #0]
}
 8000a5c:	46c0      	nop			@ (mov r8, r8)
 8000a5e:	46bd      	mov	sp, r7
 8000a60:	bd80      	pop	{r7, pc}
 8000a62:	46c0      	nop			@ (mov r8, r8)
 8000a64:	40010800 	.word	0x40010800
 8000a68:	2000009d 	.word	0x2000009d

08000a6c <gpio_init>:

/* ============ GPIO ============ */
static void gpio_init(void){
 8000a6c:	b590      	push	{r4, r7, lr}
 8000a6e:	b087      	sub	sp, #28
 8000a70:	af00      	add	r7, sp, #0
  /* PA1..PA12 como salida (7seg, LEDs, buzzer) */
  for(uint8_t i=1;i<=12;i++){ GPIOA->MODER&=~(3u<<(i*2)); GPIOA->MODER|=(1u<<(i*2)); }
 8000a72:	2317      	movs	r3, #23
 8000a74:	18fb      	adds	r3, r7, r3
 8000a76:	2201      	movs	r2, #1
 8000a78:	701a      	strb	r2, [r3, #0]
 8000a7a:	e01f      	b.n	8000abc <gpio_init+0x50>
 8000a7c:	23a0      	movs	r3, #160	@ 0xa0
 8000a7e:	05db      	lsls	r3, r3, #23
 8000a80:	681a      	ldr	r2, [r3, #0]
 8000a82:	2017      	movs	r0, #23
 8000a84:	183b      	adds	r3, r7, r0
 8000a86:	781b      	ldrb	r3, [r3, #0]
 8000a88:	005b      	lsls	r3, r3, #1
 8000a8a:	2103      	movs	r1, #3
 8000a8c:	4099      	lsls	r1, r3
 8000a8e:	000b      	movs	r3, r1
 8000a90:	43d9      	mvns	r1, r3
 8000a92:	23a0      	movs	r3, #160	@ 0xa0
 8000a94:	05db      	lsls	r3, r3, #23
 8000a96:	400a      	ands	r2, r1
 8000a98:	601a      	str	r2, [r3, #0]
 8000a9a:	23a0      	movs	r3, #160	@ 0xa0
 8000a9c:	05db      	lsls	r3, r3, #23
 8000a9e:	6819      	ldr	r1, [r3, #0]
 8000aa0:	183b      	adds	r3, r7, r0
 8000aa2:	781b      	ldrb	r3, [r3, #0]
 8000aa4:	005b      	lsls	r3, r3, #1
 8000aa6:	2201      	movs	r2, #1
 8000aa8:	409a      	lsls	r2, r3
 8000aaa:	23a0      	movs	r3, #160	@ 0xa0
 8000aac:	05db      	lsls	r3, r3, #23
 8000aae:	430a      	orrs	r2, r1
 8000ab0:	601a      	str	r2, [r3, #0]
 8000ab2:	183b      	adds	r3, r7, r0
 8000ab4:	781a      	ldrb	r2, [r3, #0]
 8000ab6:	183b      	adds	r3, r7, r0
 8000ab8:	3201      	adds	r2, #1
 8000aba:	701a      	strb	r2, [r3, #0]
 8000abc:	2317      	movs	r3, #23
 8000abe:	18fb      	adds	r3, r7, r3
 8000ac0:	781b      	ldrb	r3, [r3, #0]
 8000ac2:	2b0c      	cmp	r3, #12
 8000ac4:	d9da      	bls.n	8000a7c <gpio_init+0x10>
  /* PA0 como salida: MOTOR_EN (opcional) */
  GPIOA->MODER &= ~(3u<<(0*2));
 8000ac6:	23a0      	movs	r3, #160	@ 0xa0
 8000ac8:	05db      	lsls	r3, r3, #23
 8000aca:	681a      	ldr	r2, [r3, #0]
 8000acc:	23a0      	movs	r3, #160	@ 0xa0
 8000ace:	05db      	lsls	r3, r3, #23
 8000ad0:	2103      	movs	r1, #3
 8000ad2:	438a      	bics	r2, r1
 8000ad4:	601a      	str	r2, [r3, #0]
  GPIOA->MODER |=  (1u<<(0*2));
 8000ad6:	23a0      	movs	r3, #160	@ 0xa0
 8000ad8:	05db      	lsls	r3, r3, #23
 8000ada:	681a      	ldr	r2, [r3, #0]
 8000adc:	23a0      	movs	r3, #160	@ 0xa0
 8000ade:	05db      	lsls	r3, r3, #23
 8000ae0:	2101      	movs	r1, #1
 8000ae2:	430a      	orrs	r2, r1
 8000ae4:	601a      	str	r2, [r3, #0]
  gpio_clr(MOTOR_EN_PORT, MOTOR_EN_PIN);
 8000ae6:	23a0      	movs	r3, #160	@ 0xa0
 8000ae8:	05db      	lsls	r3, r3, #23
 8000aea:	2101      	movs	r1, #1
 8000aec:	0018      	movs	r0, r3
 8000aee:	f7ff fcb1 	bl	8000454 <gpio_clr>

  /* PB0,1,2,10 (7seg) + PB12..PB15 (keypad) + PB3..PB6 (stepper) */
  uint8_t pinsB[]={0,1,2,3,4,5,6,10,12,13,14,15};
 8000af2:	1d3b      	adds	r3, r7, #4
 8000af4:	4a64      	ldr	r2, [pc, #400]	@ (8000c88 <gpio_init+0x21c>)
 8000af6:	ca13      	ldmia	r2!, {r0, r1, r4}
 8000af8:	c313      	stmia	r3!, {r0, r1, r4}
  for(uint8_t k=0;k<sizeof(pinsB);k++){
 8000afa:	2316      	movs	r3, #22
 8000afc:	18fb      	adds	r3, r7, r3
 8000afe:	2200      	movs	r2, #0
 8000b00:	701a      	strb	r2, [r3, #0]
 8000b02:	e022      	b.n	8000b4a <gpio_init+0xde>
    uint8_t p=pinsB[k];
 8000b04:	2016      	movs	r0, #22
 8000b06:	183b      	adds	r3, r7, r0
 8000b08:	781a      	ldrb	r2, [r3, #0]
 8000b0a:	2413      	movs	r4, #19
 8000b0c:	193b      	adds	r3, r7, r4
 8000b0e:	1d39      	adds	r1, r7, #4
 8000b10:	5c8a      	ldrb	r2, [r1, r2]
 8000b12:	701a      	strb	r2, [r3, #0]
    GPIOB->MODER&=~(3u<<(p*2));
 8000b14:	4b5d      	ldr	r3, [pc, #372]	@ (8000c8c <gpio_init+0x220>)
 8000b16:	681a      	ldr	r2, [r3, #0]
 8000b18:	193b      	adds	r3, r7, r4
 8000b1a:	781b      	ldrb	r3, [r3, #0]
 8000b1c:	005b      	lsls	r3, r3, #1
 8000b1e:	2103      	movs	r1, #3
 8000b20:	4099      	lsls	r1, r3
 8000b22:	000b      	movs	r3, r1
 8000b24:	43d9      	mvns	r1, r3
 8000b26:	4b59      	ldr	r3, [pc, #356]	@ (8000c8c <gpio_init+0x220>)
 8000b28:	400a      	ands	r2, r1
 8000b2a:	601a      	str	r2, [r3, #0]
    GPIOB->MODER|=(1u<<(p*2));
 8000b2c:	4b57      	ldr	r3, [pc, #348]	@ (8000c8c <gpio_init+0x220>)
 8000b2e:	6819      	ldr	r1, [r3, #0]
 8000b30:	193b      	adds	r3, r7, r4
 8000b32:	781b      	ldrb	r3, [r3, #0]
 8000b34:	005b      	lsls	r3, r3, #1
 8000b36:	2201      	movs	r2, #1
 8000b38:	409a      	lsls	r2, r3
 8000b3a:	4b54      	ldr	r3, [pc, #336]	@ (8000c8c <gpio_init+0x220>)
 8000b3c:	430a      	orrs	r2, r1
 8000b3e:	601a      	str	r2, [r3, #0]
  for(uint8_t k=0;k<sizeof(pinsB);k++){
 8000b40:	183b      	adds	r3, r7, r0
 8000b42:	781a      	ldrb	r2, [r3, #0]
 8000b44:	183b      	adds	r3, r7, r0
 8000b46:	3201      	adds	r2, #1
 8000b48:	701a      	strb	r2, [r3, #0]
 8000b4a:	2316      	movs	r3, #22
 8000b4c:	18fb      	adds	r3, r7, r3
 8000b4e:	781b      	ldrb	r3, [r3, #0]
 8000b50:	2b0b      	cmp	r3, #11
 8000b52:	d9d7      	bls.n	8000b04 <gpio_init+0x98>
  }
  /* PB7 entrada pull-up: puerta */
  GPIOB->MODER &= ~(3u<<(7*2));
 8000b54:	4b4d      	ldr	r3, [pc, #308]	@ (8000c8c <gpio_init+0x220>)
 8000b56:	681a      	ldr	r2, [r3, #0]
 8000b58:	4b4c      	ldr	r3, [pc, #304]	@ (8000c8c <gpio_init+0x220>)
 8000b5a:	494d      	ldr	r1, [pc, #308]	@ (8000c90 <gpio_init+0x224>)
 8000b5c:	400a      	ands	r2, r1
 8000b5e:	601a      	str	r2, [r3, #0]
  GPIOB->PUPDR &= ~(3u<<(7*2));
 8000b60:	4b4a      	ldr	r3, [pc, #296]	@ (8000c8c <gpio_init+0x220>)
 8000b62:	68da      	ldr	r2, [r3, #12]
 8000b64:	4b49      	ldr	r3, [pc, #292]	@ (8000c8c <gpio_init+0x220>)
 8000b66:	494a      	ldr	r1, [pc, #296]	@ (8000c90 <gpio_init+0x224>)
 8000b68:	400a      	ands	r2, r1
 8000b6a:	60da      	str	r2, [r3, #12]
  GPIOB->PUPDR |=  (1u<<(7*2));
 8000b6c:	4b47      	ldr	r3, [pc, #284]	@ (8000c8c <gpio_init+0x220>)
 8000b6e:	68da      	ldr	r2, [r3, #12]
 8000b70:	4b46      	ldr	r3, [pc, #280]	@ (8000c8c <gpio_init+0x220>)
 8000b72:	2180      	movs	r1, #128	@ 0x80
 8000b74:	01c9      	lsls	r1, r1, #7
 8000b76:	430a      	orrs	r2, r1
 8000b78:	60da      	str	r2, [r3, #12]

  /* desenergiza stepper */
  gpio_clr(STP_PORT, STP_IN1|STP_IN2|STP_IN3|STP_IN4);
 8000b7a:	4b44      	ldr	r3, [pc, #272]	@ (8000c8c <gpio_init+0x220>)
 8000b7c:	2178      	movs	r1, #120	@ 0x78
 8000b7e:	0018      	movs	r0, r3
 8000b80:	f7ff fc68 	bl	8000454 <gpio_clr>

  /* PC0..PC5 LCD salida; PC6..PC9 columnas keypad pull-up */
  for(uint8_t i=0;i<=5;i++){ GPIOC->MODER&=~(3u<<(i*2)); GPIOC->MODER|=(1u<<(i*2)); }
 8000b84:	2315      	movs	r3, #21
 8000b86:	18fb      	adds	r3, r7, r3
 8000b88:	2200      	movs	r2, #0
 8000b8a:	701a      	strb	r2, [r3, #0]
 8000b8c:	e01b      	b.n	8000bc6 <gpio_init+0x15a>
 8000b8e:	4b41      	ldr	r3, [pc, #260]	@ (8000c94 <gpio_init+0x228>)
 8000b90:	681a      	ldr	r2, [r3, #0]
 8000b92:	2015      	movs	r0, #21
 8000b94:	183b      	adds	r3, r7, r0
 8000b96:	781b      	ldrb	r3, [r3, #0]
 8000b98:	005b      	lsls	r3, r3, #1
 8000b9a:	2103      	movs	r1, #3
 8000b9c:	4099      	lsls	r1, r3
 8000b9e:	000b      	movs	r3, r1
 8000ba0:	43d9      	mvns	r1, r3
 8000ba2:	4b3c      	ldr	r3, [pc, #240]	@ (8000c94 <gpio_init+0x228>)
 8000ba4:	400a      	ands	r2, r1
 8000ba6:	601a      	str	r2, [r3, #0]
 8000ba8:	4b3a      	ldr	r3, [pc, #232]	@ (8000c94 <gpio_init+0x228>)
 8000baa:	6819      	ldr	r1, [r3, #0]
 8000bac:	183b      	adds	r3, r7, r0
 8000bae:	781b      	ldrb	r3, [r3, #0]
 8000bb0:	005b      	lsls	r3, r3, #1
 8000bb2:	2201      	movs	r2, #1
 8000bb4:	409a      	lsls	r2, r3
 8000bb6:	4b37      	ldr	r3, [pc, #220]	@ (8000c94 <gpio_init+0x228>)
 8000bb8:	430a      	orrs	r2, r1
 8000bba:	601a      	str	r2, [r3, #0]
 8000bbc:	183b      	adds	r3, r7, r0
 8000bbe:	781a      	ldrb	r2, [r3, #0]
 8000bc0:	183b      	adds	r3, r7, r0
 8000bc2:	3201      	adds	r2, #1
 8000bc4:	701a      	strb	r2, [r3, #0]
 8000bc6:	2315      	movs	r3, #21
 8000bc8:	18fb      	adds	r3, r7, r3
 8000bca:	781b      	ldrb	r3, [r3, #0]
 8000bcc:	2b05      	cmp	r3, #5
 8000bce:	d9de      	bls.n	8000b8e <gpio_init+0x122>
  for(uint8_t i=6;i<=9;i++){ GPIOC->MODER&=~(3u<<(i*2)); GPIOC->PUPDR&=~(3u<<(i*2)); GPIOC->PUPDR|=(1u<<(i*2)); }
 8000bd0:	2314      	movs	r3, #20
 8000bd2:	18fb      	adds	r3, r7, r3
 8000bd4:	2206      	movs	r2, #6
 8000bd6:	701a      	strb	r2, [r3, #0]
 8000bd8:	e027      	b.n	8000c2a <gpio_init+0x1be>
 8000bda:	4b2e      	ldr	r3, [pc, #184]	@ (8000c94 <gpio_init+0x228>)
 8000bdc:	681a      	ldr	r2, [r3, #0]
 8000bde:	2014      	movs	r0, #20
 8000be0:	183b      	adds	r3, r7, r0
 8000be2:	781b      	ldrb	r3, [r3, #0]
 8000be4:	005b      	lsls	r3, r3, #1
 8000be6:	2103      	movs	r1, #3
 8000be8:	4099      	lsls	r1, r3
 8000bea:	000b      	movs	r3, r1
 8000bec:	43d9      	mvns	r1, r3
 8000bee:	4b29      	ldr	r3, [pc, #164]	@ (8000c94 <gpio_init+0x228>)
 8000bf0:	400a      	ands	r2, r1
 8000bf2:	601a      	str	r2, [r3, #0]
 8000bf4:	4b27      	ldr	r3, [pc, #156]	@ (8000c94 <gpio_init+0x228>)
 8000bf6:	68da      	ldr	r2, [r3, #12]
 8000bf8:	183b      	adds	r3, r7, r0
 8000bfa:	781b      	ldrb	r3, [r3, #0]
 8000bfc:	005b      	lsls	r3, r3, #1
 8000bfe:	2103      	movs	r1, #3
 8000c00:	4099      	lsls	r1, r3
 8000c02:	000b      	movs	r3, r1
 8000c04:	43d9      	mvns	r1, r3
 8000c06:	4b23      	ldr	r3, [pc, #140]	@ (8000c94 <gpio_init+0x228>)
 8000c08:	400a      	ands	r2, r1
 8000c0a:	60da      	str	r2, [r3, #12]
 8000c0c:	4b21      	ldr	r3, [pc, #132]	@ (8000c94 <gpio_init+0x228>)
 8000c0e:	68d9      	ldr	r1, [r3, #12]
 8000c10:	183b      	adds	r3, r7, r0
 8000c12:	781b      	ldrb	r3, [r3, #0]
 8000c14:	005b      	lsls	r3, r3, #1
 8000c16:	2201      	movs	r2, #1
 8000c18:	409a      	lsls	r2, r3
 8000c1a:	4b1e      	ldr	r3, [pc, #120]	@ (8000c94 <gpio_init+0x228>)
 8000c1c:	430a      	orrs	r2, r1
 8000c1e:	60da      	str	r2, [r3, #12]
 8000c20:	183b      	adds	r3, r7, r0
 8000c22:	781a      	ldrb	r2, [r3, #0]
 8000c24:	183b      	adds	r3, r7, r0
 8000c26:	3201      	adds	r2, #1
 8000c28:	701a      	strb	r2, [r3, #0]
 8000c2a:	2314      	movs	r3, #20
 8000c2c:	18fb      	adds	r3, r7, r3
 8000c2e:	781b      	ldrb	r3, [r3, #0]
 8000c30:	2b09      	cmp	r3, #9
 8000c32:	d9d2      	bls.n	8000bda <gpio_init+0x16e>

#if SEG_CC
  gpio_clr(GPIOA, GPIO_PIN_1|GPIO_PIN_2|GPIO_PIN_3|GPIO_PIN_4|GPIO_PIN_5|GPIO_PIN_6|GPIO_PIN_7|GPIO_PIN_8);
 8000c34:	23ff      	movs	r3, #255	@ 0xff
 8000c36:	005a      	lsls	r2, r3, #1
 8000c38:	23a0      	movs	r3, #160	@ 0xa0
 8000c3a:	05db      	lsls	r3, r3, #23
 8000c3c:	0011      	movs	r1, r2
 8000c3e:	0018      	movs	r0, r3
 8000c40:	f7ff fc08 	bl	8000454 <gpio_clr>
#else
  gpio_set(GPIOA, GPIO_PIN_1|GPIO_PIN_2|GPIO_PIN_3|GPIO_PIN_4|GPIO_PIN_5|GPIO_PIN_6|GPIO_PIN_7|GPIO_PIN_8);
#endif
  gpio_set(GPIOB, GPIO_PIN_12|GPIO_PIN_13|GPIO_PIN_14|GPIO_PIN_15);
 8000c44:	23f0      	movs	r3, #240	@ 0xf0
 8000c46:	021b      	lsls	r3, r3, #8
 8000c48:	4a10      	ldr	r2, [pc, #64]	@ (8000c8c <gpio_init+0x220>)
 8000c4a:	0019      	movs	r1, r3
 8000c4c:	0010      	movs	r0, r2
 8000c4e:	f7ff fbf5 	bl	800043c <gpio_set>
  gpio_clr(GPIOA, GPIO_PIN_9|GPIO_PIN_10|GPIO_PIN_11|GPIO_PIN_12);
 8000c52:	23f0      	movs	r3, #240	@ 0xf0
 8000c54:	015a      	lsls	r2, r3, #5
 8000c56:	23a0      	movs	r3, #160	@ 0xa0
 8000c58:	05db      	lsls	r3, r3, #23
 8000c5a:	0011      	movs	r1, r2
 8000c5c:	0018      	movs	r0, r3
 8000c5e:	f7ff fbf9 	bl	8000454 <gpio_clr>
  seg_all_off();
 8000c62:	f000 f81b 	bl	8000c9c <seg_all_off>

  door_closed = (gpio_rd(DOOR_PORT, DOOR_PIN) ? 0u : 1u);
 8000c66:	4b09      	ldr	r3, [pc, #36]	@ (8000c8c <gpio_init+0x220>)
 8000c68:	2180      	movs	r1, #128	@ 0x80
 8000c6a:	0018      	movs	r0, r3
 8000c6c:	f7ff fbfe 	bl	800046c <gpio_rd>
 8000c70:	0003      	movs	r3, r0
 8000c72:	425a      	negs	r2, r3
 8000c74:	4153      	adcs	r3, r2
 8000c76:	b2db      	uxtb	r3, r3
 8000c78:	001a      	movs	r2, r3
 8000c7a:	4b07      	ldr	r3, [pc, #28]	@ (8000c98 <gpio_init+0x22c>)
 8000c7c:	701a      	strb	r2, [r3, #0]
}
 8000c7e:	46c0      	nop			@ (mov r8, r8)
 8000c80:	46bd      	mov	sp, r7
 8000c82:	b007      	add	sp, #28
 8000c84:	bd90      	pop	{r4, r7, pc}
 8000c86:	46c0      	nop			@ (mov r8, r8)
 8000c88:	08002a00 	.word	0x08002a00
 8000c8c:	50000400 	.word	0x50000400
 8000c90:	ffff3fff 	.word	0xffff3fff
 8000c94:	50000800 	.word	0x50000800
 8000c98:	20000001 	.word	0x20000001

08000c9c <seg_all_off>:

/* ============ 7-seg ============ */
static void seg_all_off(void){
 8000c9c:	b580      	push	{r7, lr}
 8000c9e:	af00      	add	r7, sp, #0
#if SEG_CC
  gpio_set(GPIOB,GPIO_PIN_0|GPIO_PIN_1|GPIO_PIN_2|GPIO_PIN_10);
 8000ca0:	4a04      	ldr	r2, [pc, #16]	@ (8000cb4 <seg_all_off+0x18>)
 8000ca2:	4b05      	ldr	r3, [pc, #20]	@ (8000cb8 <seg_all_off+0x1c>)
 8000ca4:	0011      	movs	r1, r2
 8000ca6:	0018      	movs	r0, r3
 8000ca8:	f7ff fbc8 	bl	800043c <gpio_set>
#else
  gpio_clr(GPIOB,GPIO_PIN_0|GPIO_PIN_1|GPIO_PIN_2|GPIO_PIN_10);
#endif
}
 8000cac:	46c0      	nop			@ (mov r8, r8)
 8000cae:	46bd      	mov	sp, r7
 8000cb0:	bd80      	pop	{r7, pc}
 8000cb2:	46c0      	nop			@ (mov r8, r8)
 8000cb4:	00000407 	.word	0x00000407
 8000cb8:	50000400 	.word	0x50000400

08000cbc <seg_enable_digit>:
static void seg_enable_digit(uint8_t i){
 8000cbc:	b580      	push	{r7, lr}
 8000cbe:	b082      	sub	sp, #8
 8000cc0:	af00      	add	r7, sp, #0
 8000cc2:	0002      	movs	r2, r0
 8000cc4:	1dfb      	adds	r3, r7, #7
 8000cc6:	701a      	strb	r2, [r3, #0]
#if SEG_CC
  switch(i){ case 0:gpio_clr(GPIOB,GPIO_PIN_0);break; case 1:gpio_clr(GPIOB,GPIO_PIN_1);break;
 8000cc8:	1dfb      	adds	r3, r7, #7
 8000cca:	781b      	ldrb	r3, [r3, #0]
 8000ccc:	2b03      	cmp	r3, #3
 8000cce:	d01a      	beq.n	8000d06 <seg_enable_digit+0x4a>
 8000cd0:	dc21      	bgt.n	8000d16 <seg_enable_digit+0x5a>
 8000cd2:	2b02      	cmp	r3, #2
 8000cd4:	d011      	beq.n	8000cfa <seg_enable_digit+0x3e>
 8000cd6:	dc1e      	bgt.n	8000d16 <seg_enable_digit+0x5a>
 8000cd8:	2b00      	cmp	r3, #0
 8000cda:	d002      	beq.n	8000ce2 <seg_enable_digit+0x26>
 8000cdc:	2b01      	cmp	r3, #1
 8000cde:	d006      	beq.n	8000cee <seg_enable_digit+0x32>
             case 2:gpio_clr(GPIOB,GPIO_PIN_2);break; case 3:gpio_clr(GPIOB,GPIO_PIN_10);break; }
#else
  switch(i){ case 0:gpio_set(GPIOB,GPIO_PIN_0);break; case 1:gpio_set(GPIOB,GPIO_PIN_1);break;
             case 2:gpio_set(GPIOB,GPIO_PIN_2);break; case 3:gpio_set(GPIOB,GPIO_PIN_10);break; }
#endif
}
 8000ce0:	e019      	b.n	8000d16 <seg_enable_digit+0x5a>
  switch(i){ case 0:gpio_clr(GPIOB,GPIO_PIN_0);break; case 1:gpio_clr(GPIOB,GPIO_PIN_1);break;
 8000ce2:	4b0f      	ldr	r3, [pc, #60]	@ (8000d20 <seg_enable_digit+0x64>)
 8000ce4:	2101      	movs	r1, #1
 8000ce6:	0018      	movs	r0, r3
 8000ce8:	f7ff fbb4 	bl	8000454 <gpio_clr>
 8000cec:	e013      	b.n	8000d16 <seg_enable_digit+0x5a>
 8000cee:	4b0c      	ldr	r3, [pc, #48]	@ (8000d20 <seg_enable_digit+0x64>)
 8000cf0:	2102      	movs	r1, #2
 8000cf2:	0018      	movs	r0, r3
 8000cf4:	f7ff fbae 	bl	8000454 <gpio_clr>
 8000cf8:	e00d      	b.n	8000d16 <seg_enable_digit+0x5a>
             case 2:gpio_clr(GPIOB,GPIO_PIN_2);break; case 3:gpio_clr(GPIOB,GPIO_PIN_10);break; }
 8000cfa:	4b09      	ldr	r3, [pc, #36]	@ (8000d20 <seg_enable_digit+0x64>)
 8000cfc:	2104      	movs	r1, #4
 8000cfe:	0018      	movs	r0, r3
 8000d00:	f7ff fba8 	bl	8000454 <gpio_clr>
 8000d04:	e007      	b.n	8000d16 <seg_enable_digit+0x5a>
 8000d06:	2380      	movs	r3, #128	@ 0x80
 8000d08:	00db      	lsls	r3, r3, #3
 8000d0a:	4a05      	ldr	r2, [pc, #20]	@ (8000d20 <seg_enable_digit+0x64>)
 8000d0c:	0019      	movs	r1, r3
 8000d0e:	0010      	movs	r0, r2
 8000d10:	f7ff fba0 	bl	8000454 <gpio_clr>
 8000d14:	46c0      	nop			@ (mov r8, r8)
}
 8000d16:	46c0      	nop			@ (mov r8, r8)
 8000d18:	46bd      	mov	sp, r7
 8000d1a:	b002      	add	sp, #8
 8000d1c:	bd80      	pop	{r7, pc}
 8000d1e:	46c0      	nop			@ (mov r8, r8)
 8000d20:	50000400 	.word	0x50000400

08000d24 <seg_set_segments>:
static void seg_set_segments(uint8_t code,uint8_t dp_on){
 8000d24:	b580      	push	{r7, lr}
 8000d26:	b084      	sub	sp, #16
 8000d28:	af00      	add	r7, sp, #0
 8000d2a:	0002      	movs	r2, r0
 8000d2c:	1dfb      	adds	r3, r7, #7
 8000d2e:	701a      	strb	r2, [r3, #0]
 8000d30:	1dbb      	adds	r3, r7, #6
 8000d32:	1c0a      	adds	r2, r1, #0
 8000d34:	701a      	strb	r2, [r3, #0]
  for(uint8_t b=0;b<7;b++){
 8000d36:	230f      	movs	r3, #15
 8000d38:	18fb      	adds	r3, r7, r3
 8000d3a:	2200      	movs	r2, #0
 8000d3c:	701a      	strb	r2, [r3, #0]
 8000d3e:	e024      	b.n	8000d8a <seg_set_segments+0x66>
    uint32_t pin=(GPIO_PIN_1<<b); /* PA1..PA7 = a..g */
 8000d40:	210f      	movs	r1, #15
 8000d42:	187b      	adds	r3, r7, r1
 8000d44:	781b      	ldrb	r3, [r3, #0]
 8000d46:	2202      	movs	r2, #2
 8000d48:	409a      	lsls	r2, r3
 8000d4a:	0013      	movs	r3, r2
 8000d4c:	60bb      	str	r3, [r7, #8]
#if SEG_CC
    if(code&(1u<<b)) gpio_set(GPIOA,pin); else gpio_clr(GPIOA,pin);
 8000d4e:	1dfb      	adds	r3, r7, #7
 8000d50:	781a      	ldrb	r2, [r3, #0]
 8000d52:	187b      	adds	r3, r7, r1
 8000d54:	781b      	ldrb	r3, [r3, #0]
 8000d56:	40da      	lsrs	r2, r3
 8000d58:	0013      	movs	r3, r2
 8000d5a:	2201      	movs	r2, #1
 8000d5c:	4013      	ands	r3, r2
 8000d5e:	d007      	beq.n	8000d70 <seg_set_segments+0x4c>
 8000d60:	68ba      	ldr	r2, [r7, #8]
 8000d62:	23a0      	movs	r3, #160	@ 0xa0
 8000d64:	05db      	lsls	r3, r3, #23
 8000d66:	0011      	movs	r1, r2
 8000d68:	0018      	movs	r0, r3
 8000d6a:	f7ff fb67 	bl	800043c <gpio_set>
 8000d6e:	e006      	b.n	8000d7e <seg_set_segments+0x5a>
 8000d70:	68ba      	ldr	r2, [r7, #8]
 8000d72:	23a0      	movs	r3, #160	@ 0xa0
 8000d74:	05db      	lsls	r3, r3, #23
 8000d76:	0011      	movs	r1, r2
 8000d78:	0018      	movs	r0, r3
 8000d7a:	f7ff fb6b 	bl	8000454 <gpio_clr>
  for(uint8_t b=0;b<7;b++){
 8000d7e:	210f      	movs	r1, #15
 8000d80:	187b      	adds	r3, r7, r1
 8000d82:	781a      	ldrb	r2, [r3, #0]
 8000d84:	187b      	adds	r3, r7, r1
 8000d86:	3201      	adds	r2, #1
 8000d88:	701a      	strb	r2, [r3, #0]
 8000d8a:	230f      	movs	r3, #15
 8000d8c:	18fb      	adds	r3, r7, r3
 8000d8e:	781b      	ldrb	r3, [r3, #0]
 8000d90:	2b06      	cmp	r3, #6
 8000d92:	d9d5      	bls.n	8000d40 <seg_set_segments+0x1c>
#else
    if(code&(1u<<b)) gpio_clr(GPIOA,pin); else gpio_set(GPIOA,pin);
#endif
  }
#if SEG_CC
  if(dp_on) gpio_set(GPIOA,GPIO_PIN_8); else gpio_clr(GPIOA,GPIO_PIN_8);
 8000d94:	1dbb      	adds	r3, r7, #6
 8000d96:	781b      	ldrb	r3, [r3, #0]
 8000d98:	2b00      	cmp	r3, #0
 8000d9a:	d008      	beq.n	8000dae <seg_set_segments+0x8a>
 8000d9c:	2380      	movs	r3, #128	@ 0x80
 8000d9e:	005a      	lsls	r2, r3, #1
 8000da0:	23a0      	movs	r3, #160	@ 0xa0
 8000da2:	05db      	lsls	r3, r3, #23
 8000da4:	0011      	movs	r1, r2
 8000da6:	0018      	movs	r0, r3
 8000da8:	f7ff fb48 	bl	800043c <gpio_set>
#else
  if(dp_on) gpio_clr(GPIOA,GPIO_PIN_8); else gpio_set(GPIOA,GPIO_PIN_8);
#endif
}
 8000dac:	e007      	b.n	8000dbe <seg_set_segments+0x9a>
  if(dp_on) gpio_set(GPIOA,GPIO_PIN_8); else gpio_clr(GPIOA,GPIO_PIN_8);
 8000dae:	2380      	movs	r3, #128	@ 0x80
 8000db0:	005a      	lsls	r2, r3, #1
 8000db2:	23a0      	movs	r3, #160	@ 0xa0
 8000db4:	05db      	lsls	r3, r3, #23
 8000db6:	0011      	movs	r1, r2
 8000db8:	0018      	movs	r0, r3
 8000dba:	f7ff fb4b 	bl	8000454 <gpio_clr>
}
 8000dbe:	46c0      	nop			@ (mov r8, r8)
 8000dc0:	46bd      	mov	sp, r7
 8000dc2:	b004      	add	sp, #16
 8000dc4:	bd80      	pop	{r7, pc}
	...

08000dc8 <show_time_7seg>:
static void show_time_7seg(uint16_t s){
 8000dc8:	b5f0      	push	{r4, r5, r6, r7, lr}
 8000dca:	b085      	sub	sp, #20
 8000dcc:	af00      	add	r7, sp, #0
 8000dce:	0002      	movs	r2, r0
 8000dd0:	1dbb      	adds	r3, r7, #6
 8000dd2:	801a      	strh	r2, [r3, #0]
  uint8_t mT=(s/60)/10, mU=(s/60)%10, sT=(s%60)/10, sU=(s%60)%10;
 8000dd4:	1dbb      	adds	r3, r7, #6
 8000dd6:	881b      	ldrh	r3, [r3, #0]
 8000dd8:	2296      	movs	r2, #150	@ 0x96
 8000dda:	0091      	lsls	r1, r2, #2
 8000ddc:	0018      	movs	r0, r3
 8000dde:	f7ff f99d 	bl	800011c <__udivsi3>
 8000de2:	0003      	movs	r3, r0
 8000de4:	b29a      	uxth	r2, r3
 8000de6:	240f      	movs	r4, #15
 8000de8:	193b      	adds	r3, r7, r4
 8000dea:	701a      	strb	r2, [r3, #0]
 8000dec:	1dbb      	adds	r3, r7, #6
 8000dee:	881b      	ldrh	r3, [r3, #0]
 8000df0:	213c      	movs	r1, #60	@ 0x3c
 8000df2:	0018      	movs	r0, r3
 8000df4:	f7ff f992 	bl	800011c <__udivsi3>
 8000df8:	0003      	movs	r3, r0
 8000dfa:	b29b      	uxth	r3, r3
 8000dfc:	210a      	movs	r1, #10
 8000dfe:	0018      	movs	r0, r3
 8000e00:	f7ff fa12 	bl	8000228 <__aeabi_uidivmod>
 8000e04:	000b      	movs	r3, r1
 8000e06:	b29a      	uxth	r2, r3
 8000e08:	250e      	movs	r5, #14
 8000e0a:	197b      	adds	r3, r7, r5
 8000e0c:	701a      	strb	r2, [r3, #0]
 8000e0e:	1dbb      	adds	r3, r7, #6
 8000e10:	881b      	ldrh	r3, [r3, #0]
 8000e12:	213c      	movs	r1, #60	@ 0x3c
 8000e14:	0018      	movs	r0, r3
 8000e16:	f7ff fa07 	bl	8000228 <__aeabi_uidivmod>
 8000e1a:	000b      	movs	r3, r1
 8000e1c:	b29b      	uxth	r3, r3
 8000e1e:	210a      	movs	r1, #10
 8000e20:	0018      	movs	r0, r3
 8000e22:	f7ff f97b 	bl	800011c <__udivsi3>
 8000e26:	0003      	movs	r3, r0
 8000e28:	b29a      	uxth	r2, r3
 8000e2a:	260d      	movs	r6, #13
 8000e2c:	19bb      	adds	r3, r7, r6
 8000e2e:	701a      	strb	r2, [r3, #0]
 8000e30:	1dbb      	adds	r3, r7, #6
 8000e32:	881b      	ldrh	r3, [r3, #0]
 8000e34:	213c      	movs	r1, #60	@ 0x3c
 8000e36:	0018      	movs	r0, r3
 8000e38:	f7ff f9f6 	bl	8000228 <__aeabi_uidivmod>
 8000e3c:	000b      	movs	r3, r1
 8000e3e:	b29b      	uxth	r3, r3
 8000e40:	210a      	movs	r1, #10
 8000e42:	0018      	movs	r0, r3
 8000e44:	f7ff f9f0 	bl	8000228 <__aeabi_uidivmod>
 8000e48:	000b      	movs	r3, r1
 8000e4a:	b29a      	uxth	r2, r3
 8000e4c:	210c      	movs	r1, #12
 8000e4e:	187b      	adds	r3, r7, r1
 8000e50:	701a      	strb	r2, [r3, #0]
  seg_code[0]=DIGCODE[mT]; seg_code[1]=DIGCODE[mU]; seg_code[2]=DIGCODE[sT]; seg_code[3]=DIGCODE[sU];
 8000e52:	193b      	adds	r3, r7, r4
 8000e54:	781b      	ldrb	r3, [r3, #0]
 8000e56:	4a0d      	ldr	r2, [pc, #52]	@ (8000e8c <show_time_7seg+0xc4>)
 8000e58:	5cd2      	ldrb	r2, [r2, r3]
 8000e5a:	4b0d      	ldr	r3, [pc, #52]	@ (8000e90 <show_time_7seg+0xc8>)
 8000e5c:	701a      	strb	r2, [r3, #0]
 8000e5e:	197b      	adds	r3, r7, r5
 8000e60:	781b      	ldrb	r3, [r3, #0]
 8000e62:	4a0a      	ldr	r2, [pc, #40]	@ (8000e8c <show_time_7seg+0xc4>)
 8000e64:	5cd2      	ldrb	r2, [r2, r3]
 8000e66:	4b0a      	ldr	r3, [pc, #40]	@ (8000e90 <show_time_7seg+0xc8>)
 8000e68:	705a      	strb	r2, [r3, #1]
 8000e6a:	19bb      	adds	r3, r7, r6
 8000e6c:	781b      	ldrb	r3, [r3, #0]
 8000e6e:	4a07      	ldr	r2, [pc, #28]	@ (8000e8c <show_time_7seg+0xc4>)
 8000e70:	5cd2      	ldrb	r2, [r2, r3]
 8000e72:	4b07      	ldr	r3, [pc, #28]	@ (8000e90 <show_time_7seg+0xc8>)
 8000e74:	709a      	strb	r2, [r3, #2]
 8000e76:	187b      	adds	r3, r7, r1
 8000e78:	781b      	ldrb	r3, [r3, #0]
 8000e7a:	4a04      	ldr	r2, [pc, #16]	@ (8000e8c <show_time_7seg+0xc4>)
 8000e7c:	5cd2      	ldrb	r2, [r2, r3]
 8000e7e:	4b04      	ldr	r3, [pc, #16]	@ (8000e90 <show_time_7seg+0xc8>)
 8000e80:	70da      	strb	r2, [r3, #3]
}
 8000e82:	46c0      	nop			@ (mov r8, r8)
 8000e84:	46bd      	mov	sp, r7
 8000e86:	b005      	add	sp, #20
 8000e88:	bdf0      	pop	{r4, r5, r6, r7, pc}
 8000e8a:	46c0      	nop			@ (mov r8, r8)
 8000e8c:	08002b10 	.word	0x08002b10
 8000e90:	200000bc 	.word	0x200000bc

08000e94 <LCD_RS>:

/* ============ LCD (4-bit) ============ */
static inline void LCD_RS(uint8_t v){ v?gpio_set(GPIOC,GPIO_PIN_0):gpio_clr(GPIOC,GPIO_PIN_0); }
 8000e94:	b580      	push	{r7, lr}
 8000e96:	b082      	sub	sp, #8
 8000e98:	af00      	add	r7, sp, #0
 8000e9a:	0002      	movs	r2, r0
 8000e9c:	1dfb      	adds	r3, r7, #7
 8000e9e:	701a      	strb	r2, [r3, #0]
 8000ea0:	1dfb      	adds	r3, r7, #7
 8000ea2:	781b      	ldrb	r3, [r3, #0]
 8000ea4:	2b00      	cmp	r3, #0
 8000ea6:	d005      	beq.n	8000eb4 <LCD_RS+0x20>
 8000ea8:	4b07      	ldr	r3, [pc, #28]	@ (8000ec8 <LCD_RS+0x34>)
 8000eaa:	2101      	movs	r1, #1
 8000eac:	0018      	movs	r0, r3
 8000eae:	f7ff fac5 	bl	800043c <gpio_set>
 8000eb2:	e004      	b.n	8000ebe <LCD_RS+0x2a>
 8000eb4:	4b04      	ldr	r3, [pc, #16]	@ (8000ec8 <LCD_RS+0x34>)
 8000eb6:	2101      	movs	r1, #1
 8000eb8:	0018      	movs	r0, r3
 8000eba:	f7ff facb 	bl	8000454 <gpio_clr>
 8000ebe:	46c0      	nop			@ (mov r8, r8)
 8000ec0:	46bd      	mov	sp, r7
 8000ec2:	b002      	add	sp, #8
 8000ec4:	bd80      	pop	{r7, pc}
 8000ec6:	46c0      	nop			@ (mov r8, r8)
 8000ec8:	50000800 	.word	0x50000800

08000ecc <LCD_EH>:
static inline void LCD_EH(void){ gpio_set(GPIOC,GPIO_PIN_1); }
 8000ecc:	b580      	push	{r7, lr}
 8000ece:	af00      	add	r7, sp, #0
 8000ed0:	4b03      	ldr	r3, [pc, #12]	@ (8000ee0 <LCD_EH+0x14>)
 8000ed2:	2102      	movs	r1, #2
 8000ed4:	0018      	movs	r0, r3
 8000ed6:	f7ff fab1 	bl	800043c <gpio_set>
 8000eda:	46c0      	nop			@ (mov r8, r8)
 8000edc:	46bd      	mov	sp, r7
 8000ede:	bd80      	pop	{r7, pc}
 8000ee0:	50000800 	.word	0x50000800

08000ee4 <LCD_EL>:
static inline void LCD_EL(void){ gpio_clr(GPIOC,GPIO_PIN_1); }
 8000ee4:	b580      	push	{r7, lr}
 8000ee6:	af00      	add	r7, sp, #0
 8000ee8:	4b03      	ldr	r3, [pc, #12]	@ (8000ef8 <LCD_EL+0x14>)
 8000eea:	2102      	movs	r1, #2
 8000eec:	0018      	movs	r0, r3
 8000eee:	f7ff fab1 	bl	8000454 <gpio_clr>
 8000ef2:	46c0      	nop			@ (mov r8, r8)
 8000ef4:	46bd      	mov	sp, r7
 8000ef6:	bd80      	pop	{r7, pc}
 8000ef8:	50000800 	.word	0x50000800

08000efc <LCD_PUT4>:
static inline void LCD_PUT4(uint8_t vh){
 8000efc:	b580      	push	{r7, lr}
 8000efe:	b082      	sub	sp, #8
 8000f00:	af00      	add	r7, sp, #0
 8000f02:	0002      	movs	r2, r0
 8000f04:	1dfb      	adds	r3, r7, #7
 8000f06:	701a      	strb	r2, [r3, #0]
  (vh&0x10)?gpio_set(GPIOC,GPIO_PIN_2):gpio_clr(GPIOC,GPIO_PIN_2);
 8000f08:	1dfb      	adds	r3, r7, #7
 8000f0a:	781b      	ldrb	r3, [r3, #0]
 8000f0c:	2210      	movs	r2, #16
 8000f0e:	4013      	ands	r3, r2
 8000f10:	d005      	beq.n	8000f1e <LCD_PUT4+0x22>
 8000f12:	4b1f      	ldr	r3, [pc, #124]	@ (8000f90 <LCD_PUT4+0x94>)
 8000f14:	2104      	movs	r1, #4
 8000f16:	0018      	movs	r0, r3
 8000f18:	f7ff fa90 	bl	800043c <gpio_set>
 8000f1c:	e004      	b.n	8000f28 <LCD_PUT4+0x2c>
 8000f1e:	4b1c      	ldr	r3, [pc, #112]	@ (8000f90 <LCD_PUT4+0x94>)
 8000f20:	2104      	movs	r1, #4
 8000f22:	0018      	movs	r0, r3
 8000f24:	f7ff fa96 	bl	8000454 <gpio_clr>
  (vh&0x20)?gpio_set(GPIOC,GPIO_PIN_3):gpio_clr(GPIOC,GPIO_PIN_3);
 8000f28:	1dfb      	adds	r3, r7, #7
 8000f2a:	781b      	ldrb	r3, [r3, #0]
 8000f2c:	2220      	movs	r2, #32
 8000f2e:	4013      	ands	r3, r2
 8000f30:	d005      	beq.n	8000f3e <LCD_PUT4+0x42>
 8000f32:	4b17      	ldr	r3, [pc, #92]	@ (8000f90 <LCD_PUT4+0x94>)
 8000f34:	2108      	movs	r1, #8
 8000f36:	0018      	movs	r0, r3
 8000f38:	f7ff fa80 	bl	800043c <gpio_set>
 8000f3c:	e004      	b.n	8000f48 <LCD_PUT4+0x4c>
 8000f3e:	4b14      	ldr	r3, [pc, #80]	@ (8000f90 <LCD_PUT4+0x94>)
 8000f40:	2108      	movs	r1, #8
 8000f42:	0018      	movs	r0, r3
 8000f44:	f7ff fa86 	bl	8000454 <gpio_clr>
  (vh&0x40)?gpio_set(GPIOC,GPIO_PIN_4):gpio_clr(GPIOC,GPIO_PIN_4);
 8000f48:	1dfb      	adds	r3, r7, #7
 8000f4a:	781b      	ldrb	r3, [r3, #0]
 8000f4c:	2240      	movs	r2, #64	@ 0x40
 8000f4e:	4013      	ands	r3, r2
 8000f50:	d005      	beq.n	8000f5e <LCD_PUT4+0x62>
 8000f52:	4b0f      	ldr	r3, [pc, #60]	@ (8000f90 <LCD_PUT4+0x94>)
 8000f54:	2110      	movs	r1, #16
 8000f56:	0018      	movs	r0, r3
 8000f58:	f7ff fa70 	bl	800043c <gpio_set>
 8000f5c:	e004      	b.n	8000f68 <LCD_PUT4+0x6c>
 8000f5e:	4b0c      	ldr	r3, [pc, #48]	@ (8000f90 <LCD_PUT4+0x94>)
 8000f60:	2110      	movs	r1, #16
 8000f62:	0018      	movs	r0, r3
 8000f64:	f7ff fa76 	bl	8000454 <gpio_clr>
  (vh&0x80)?gpio_set(GPIOC,GPIO_PIN_5):gpio_clr(GPIOC,GPIO_PIN_5);
 8000f68:	1dfb      	adds	r3, r7, #7
 8000f6a:	781b      	ldrb	r3, [r3, #0]
 8000f6c:	b25b      	sxtb	r3, r3
 8000f6e:	2b00      	cmp	r3, #0
 8000f70:	da05      	bge.n	8000f7e <LCD_PUT4+0x82>
 8000f72:	4b07      	ldr	r3, [pc, #28]	@ (8000f90 <LCD_PUT4+0x94>)
 8000f74:	2120      	movs	r1, #32
 8000f76:	0018      	movs	r0, r3
 8000f78:	f7ff fa60 	bl	800043c <gpio_set>
}
 8000f7c:	e004      	b.n	8000f88 <LCD_PUT4+0x8c>
  (vh&0x80)?gpio_set(GPIOC,GPIO_PIN_5):gpio_clr(GPIOC,GPIO_PIN_5);
 8000f7e:	4b04      	ldr	r3, [pc, #16]	@ (8000f90 <LCD_PUT4+0x94>)
 8000f80:	2120      	movs	r1, #32
 8000f82:	0018      	movs	r0, r3
 8000f84:	f7ff fa66 	bl	8000454 <gpio_clr>
}
 8000f88:	46c0      	nop			@ (mov r8, r8)
 8000f8a:	46bd      	mov	sp, r7
 8000f8c:	b002      	add	sp, #8
 8000f8e:	bd80      	pop	{r7, pc}
 8000f90:	50000800 	.word	0x50000800

08000f94 <lcd_pulse>:
static void lcd_pulse(void){ LCD_EH(); for(volatile int i=0;i<40;i++) __NOP(); LCD_EL(); }
 8000f94:	b580      	push	{r7, lr}
 8000f96:	b082      	sub	sp, #8
 8000f98:	af00      	add	r7, sp, #0
 8000f9a:	f7ff ff97 	bl	8000ecc <LCD_EH>
 8000f9e:	2300      	movs	r3, #0
 8000fa0:	607b      	str	r3, [r7, #4]
 8000fa2:	e003      	b.n	8000fac <lcd_pulse+0x18>
 8000fa4:	46c0      	nop			@ (mov r8, r8)
 8000fa6:	687b      	ldr	r3, [r7, #4]
 8000fa8:	3301      	adds	r3, #1
 8000faa:	607b      	str	r3, [r7, #4]
 8000fac:	687b      	ldr	r3, [r7, #4]
 8000fae:	2b27      	cmp	r3, #39	@ 0x27
 8000fb0:	ddf8      	ble.n	8000fa4 <lcd_pulse+0x10>
 8000fb2:	f7ff ff97 	bl	8000ee4 <LCD_EL>
 8000fb6:	46c0      	nop			@ (mov r8, r8)
 8000fb8:	46bd      	mov	sp, r7
 8000fba:	b002      	add	sp, #8
 8000fbc:	bd80      	pop	{r7, pc}

08000fbe <lcd_put4>:
static void lcd_put4(uint8_t vh){ LCD_PUT4(vh); lcd_pulse(); }
 8000fbe:	b580      	push	{r7, lr}
 8000fc0:	b082      	sub	sp, #8
 8000fc2:	af00      	add	r7, sp, #0
 8000fc4:	0002      	movs	r2, r0
 8000fc6:	1dfb      	adds	r3, r7, #7
 8000fc8:	701a      	strb	r2, [r3, #0]
 8000fca:	1dfb      	adds	r3, r7, #7
 8000fcc:	781b      	ldrb	r3, [r3, #0]
 8000fce:	0018      	movs	r0, r3
 8000fd0:	f7ff ff94 	bl	8000efc <LCD_PUT4>
 8000fd4:	f7ff ffde 	bl	8000f94 <lcd_pulse>
 8000fd8:	46c0      	nop			@ (mov r8, r8)
 8000fda:	46bd      	mov	sp, r7
 8000fdc:	b002      	add	sp, #8
 8000fde:	bd80      	pop	{r7, pc}

08000fe0 <lcd_cmd>:
static void lcd_cmd(uint8_t c){
 8000fe0:	b580      	push	{r7, lr}
 8000fe2:	b084      	sub	sp, #16
 8000fe4:	af00      	add	r7, sp, #0
 8000fe6:	0002      	movs	r2, r0
 8000fe8:	1dfb      	adds	r3, r7, #7
 8000fea:	701a      	strb	r2, [r3, #0]
  LCD_RS(0); lcd_put4(c&0xF0); lcd_put4(c<<4);
 8000fec:	2000      	movs	r0, #0
 8000fee:	f7ff ff51 	bl	8000e94 <LCD_RS>
 8000ff2:	1dfb      	adds	r3, r7, #7
 8000ff4:	781b      	ldrb	r3, [r3, #0]
 8000ff6:	220f      	movs	r2, #15
 8000ff8:	4393      	bics	r3, r2
 8000ffa:	b2db      	uxtb	r3, r3
 8000ffc:	0018      	movs	r0, r3
 8000ffe:	f7ff ffde 	bl	8000fbe <lcd_put4>
 8001002:	1dfb      	adds	r3, r7, #7
 8001004:	781b      	ldrb	r3, [r3, #0]
 8001006:	011b      	lsls	r3, r3, #4
 8001008:	b2db      	uxtb	r3, r3
 800100a:	0018      	movs	r0, r3
 800100c:	f7ff ffd7 	bl	8000fbe <lcd_put4>
  if(c==0x01 || c==0x02){ for(volatile int i=0;i<32000;i++) __NOP(); }
 8001010:	1dfb      	adds	r3, r7, #7
 8001012:	781b      	ldrb	r3, [r3, #0]
 8001014:	2b01      	cmp	r3, #1
 8001016:	d003      	beq.n	8001020 <lcd_cmd+0x40>
 8001018:	1dfb      	adds	r3, r7, #7
 800101a:	781b      	ldrb	r3, [r3, #0]
 800101c:	2b02      	cmp	r3, #2
 800101e:	d10c      	bne.n	800103a <lcd_cmd+0x5a>
 8001020:	2300      	movs	r3, #0
 8001022:	60fb      	str	r3, [r7, #12]
 8001024:	e003      	b.n	800102e <lcd_cmd+0x4e>
 8001026:	46c0      	nop			@ (mov r8, r8)
 8001028:	68fb      	ldr	r3, [r7, #12]
 800102a:	3301      	adds	r3, #1
 800102c:	60fb      	str	r3, [r7, #12]
 800102e:	68fa      	ldr	r2, [r7, #12]
 8001030:	23fa      	movs	r3, #250	@ 0xfa
 8001032:	01db      	lsls	r3, r3, #7
 8001034:	429a      	cmp	r2, r3
 8001036:	dbf6      	blt.n	8001026 <lcd_cmd+0x46>
 8001038:	e00c      	b.n	8001054 <lcd_cmd+0x74>
  else                  { for(volatile int i=0;i<900;i++)   __NOP(); }
 800103a:	2300      	movs	r3, #0
 800103c:	60bb      	str	r3, [r7, #8]
 800103e:	e003      	b.n	8001048 <lcd_cmd+0x68>
 8001040:	46c0      	nop			@ (mov r8, r8)
 8001042:	68bb      	ldr	r3, [r7, #8]
 8001044:	3301      	adds	r3, #1
 8001046:	60bb      	str	r3, [r7, #8]
 8001048:	68ba      	ldr	r2, [r7, #8]
 800104a:	23e1      	movs	r3, #225	@ 0xe1
 800104c:	009b      	lsls	r3, r3, #2
 800104e:	429a      	cmp	r2, r3
 8001050:	dbf6      	blt.n	8001040 <lcd_cmd+0x60>
}
 8001052:	46c0      	nop			@ (mov r8, r8)
 8001054:	46c0      	nop			@ (mov r8, r8)
 8001056:	46bd      	mov	sp, r7
 8001058:	b004      	add	sp, #16
 800105a:	bd80      	pop	{r7, pc}

0800105c <lcd_data>:
static void lcd_data(uint8_t d){ LCD_RS(1); lcd_put4(d&0xF0); lcd_put4(d<<4); for(volatile int i=0;i<300;i++) __NOP(); }
 800105c:	b580      	push	{r7, lr}
 800105e:	b084      	sub	sp, #16
 8001060:	af00      	add	r7, sp, #0
 8001062:	0002      	movs	r2, r0
 8001064:	1dfb      	adds	r3, r7, #7
 8001066:	701a      	strb	r2, [r3, #0]
 8001068:	2001      	movs	r0, #1
 800106a:	f7ff ff13 	bl	8000e94 <LCD_RS>
 800106e:	1dfb      	adds	r3, r7, #7
 8001070:	781b      	ldrb	r3, [r3, #0]
 8001072:	220f      	movs	r2, #15
 8001074:	4393      	bics	r3, r2
 8001076:	b2db      	uxtb	r3, r3
 8001078:	0018      	movs	r0, r3
 800107a:	f7ff ffa0 	bl	8000fbe <lcd_put4>
 800107e:	1dfb      	adds	r3, r7, #7
 8001080:	781b      	ldrb	r3, [r3, #0]
 8001082:	011b      	lsls	r3, r3, #4
 8001084:	b2db      	uxtb	r3, r3
 8001086:	0018      	movs	r0, r3
 8001088:	f7ff ff99 	bl	8000fbe <lcd_put4>
 800108c:	2300      	movs	r3, #0
 800108e:	60fb      	str	r3, [r7, #12]
 8001090:	e003      	b.n	800109a <lcd_data+0x3e>
 8001092:	46c0      	nop			@ (mov r8, r8)
 8001094:	68fb      	ldr	r3, [r7, #12]
 8001096:	3301      	adds	r3, #1
 8001098:	60fb      	str	r3, [r7, #12]
 800109a:	68fa      	ldr	r2, [r7, #12]
 800109c:	2396      	movs	r3, #150	@ 0x96
 800109e:	005b      	lsls	r3, r3, #1
 80010a0:	429a      	cmp	r2, r3
 80010a2:	dbf6      	blt.n	8001092 <lcd_data+0x36>
 80010a4:	46c0      	nop			@ (mov r8, r8)
 80010a6:	46c0      	nop			@ (mov r8, r8)
 80010a8:	46bd      	mov	sp, r7
 80010aa:	b004      	add	sp, #16
 80010ac:	bd80      	pop	{r7, pc}
	...

080010b0 <lcd_init_blocking>:
static void lcd_init_blocking(void){
 80010b0:	b580      	push	{r7, lr}
 80010b2:	b084      	sub	sp, #16
 80010b4:	af00      	add	r7, sp, #0
  for(volatile int i=0;i<40000;i++) __NOP();
 80010b6:	2300      	movs	r3, #0
 80010b8:	60fb      	str	r3, [r7, #12]
 80010ba:	e003      	b.n	80010c4 <lcd_init_blocking+0x14>
 80010bc:	46c0      	nop			@ (mov r8, r8)
 80010be:	68fb      	ldr	r3, [r7, #12]
 80010c0:	3301      	adds	r3, #1
 80010c2:	60fb      	str	r3, [r7, #12]
 80010c4:	68fb      	ldr	r3, [r7, #12]
 80010c6:	4a23      	ldr	r2, [pc, #140]	@ (8001154 <lcd_init_blocking+0xa4>)
 80010c8:	4293      	cmp	r3, r2
 80010ca:	ddf7      	ble.n	80010bc <lcd_init_blocking+0xc>
  LCD_RS(0); LCD_EL();
 80010cc:	2000      	movs	r0, #0
 80010ce:	f7ff fee1 	bl	8000e94 <LCD_RS>
 80010d2:	f7ff ff07 	bl	8000ee4 <LCD_EL>
  lcd_put4(0x30); for(volatile int i=0;i<10000;i++) __NOP();
 80010d6:	2030      	movs	r0, #48	@ 0x30
 80010d8:	f7ff ff71 	bl	8000fbe <lcd_put4>
 80010dc:	2300      	movs	r3, #0
 80010de:	60bb      	str	r3, [r7, #8]
 80010e0:	e003      	b.n	80010ea <lcd_init_blocking+0x3a>
 80010e2:	46c0      	nop			@ (mov r8, r8)
 80010e4:	68bb      	ldr	r3, [r7, #8]
 80010e6:	3301      	adds	r3, #1
 80010e8:	60bb      	str	r3, [r7, #8]
 80010ea:	68bb      	ldr	r3, [r7, #8]
 80010ec:	4a1a      	ldr	r2, [pc, #104]	@ (8001158 <lcd_init_blocking+0xa8>)
 80010ee:	4293      	cmp	r3, r2
 80010f0:	ddf7      	ble.n	80010e2 <lcd_init_blocking+0x32>
  lcd_put4(0x30); for(volatile int i=0;i<2000;i++)  __NOP();
 80010f2:	2030      	movs	r0, #48	@ 0x30
 80010f4:	f7ff ff63 	bl	8000fbe <lcd_put4>
 80010f8:	2300      	movs	r3, #0
 80010fa:	607b      	str	r3, [r7, #4]
 80010fc:	e003      	b.n	8001106 <lcd_init_blocking+0x56>
 80010fe:	46c0      	nop			@ (mov r8, r8)
 8001100:	687b      	ldr	r3, [r7, #4]
 8001102:	3301      	adds	r3, #1
 8001104:	607b      	str	r3, [r7, #4]
 8001106:	687a      	ldr	r2, [r7, #4]
 8001108:	23fa      	movs	r3, #250	@ 0xfa
 800110a:	00db      	lsls	r3, r3, #3
 800110c:	429a      	cmp	r2, r3
 800110e:	dbf6      	blt.n	80010fe <lcd_init_blocking+0x4e>
  lcd_put4(0x20); for(volatile int i=0;i<2000;i++)  __NOP();
 8001110:	2020      	movs	r0, #32
 8001112:	f7ff ff54 	bl	8000fbe <lcd_put4>
 8001116:	2300      	movs	r3, #0
 8001118:	603b      	str	r3, [r7, #0]
 800111a:	e003      	b.n	8001124 <lcd_init_blocking+0x74>
 800111c:	46c0      	nop			@ (mov r8, r8)
 800111e:	683b      	ldr	r3, [r7, #0]
 8001120:	3301      	adds	r3, #1
 8001122:	603b      	str	r3, [r7, #0]
 8001124:	683a      	ldr	r2, [r7, #0]
 8001126:	23fa      	movs	r3, #250	@ 0xfa
 8001128:	00db      	lsls	r3, r3, #3
 800112a:	429a      	cmp	r2, r3
 800112c:	dbf6      	blt.n	800111c <lcd_init_blocking+0x6c>
  lcd_cmd(0x28); lcd_cmd(0x08); lcd_cmd(0x01); lcd_cmd(0x06); lcd_cmd(0x0C);
 800112e:	2028      	movs	r0, #40	@ 0x28
 8001130:	f7ff ff56 	bl	8000fe0 <lcd_cmd>
 8001134:	2008      	movs	r0, #8
 8001136:	f7ff ff53 	bl	8000fe0 <lcd_cmd>
 800113a:	2001      	movs	r0, #1
 800113c:	f7ff ff50 	bl	8000fe0 <lcd_cmd>
 8001140:	2006      	movs	r0, #6
 8001142:	f7ff ff4d 	bl	8000fe0 <lcd_cmd>
 8001146:	200c      	movs	r0, #12
 8001148:	f7ff ff4a 	bl	8000fe0 <lcd_cmd>
}
 800114c:	46c0      	nop			@ (mov r8, r8)
 800114e:	46bd      	mov	sp, r7
 8001150:	b004      	add	sp, #16
 8001152:	bd80      	pop	{r7, pc}
 8001154:	00009c3f 	.word	0x00009c3f
 8001158:	0000270f 	.word	0x0000270f

0800115c <lcd_clear>:
static void lcd_clear(void){ lcd_cmd(0x01); }
 800115c:	b580      	push	{r7, lr}
 800115e:	af00      	add	r7, sp, #0
 8001160:	2001      	movs	r0, #1
 8001162:	f7ff ff3d 	bl	8000fe0 <lcd_cmd>
 8001166:	46c0      	nop			@ (mov r8, r8)
 8001168:	46bd      	mov	sp, r7
 800116a:	bd80      	pop	{r7, pc}

0800116c <lcd_goto>:
static void lcd_goto(uint8_t col,uint8_t row){ lcd_cmd(0x80 + (row?0x40:0x00) + col); }
 800116c:	b580      	push	{r7, lr}
 800116e:	b082      	sub	sp, #8
 8001170:	af00      	add	r7, sp, #0
 8001172:	0002      	movs	r2, r0
 8001174:	1dfb      	adds	r3, r7, #7
 8001176:	701a      	strb	r2, [r3, #0]
 8001178:	1dbb      	adds	r3, r7, #6
 800117a:	1c0a      	adds	r2, r1, #0
 800117c:	701a      	strb	r2, [r3, #0]
 800117e:	1dbb      	adds	r3, r7, #6
 8001180:	781b      	ldrb	r3, [r3, #0]
 8001182:	2b00      	cmp	r3, #0
 8001184:	d001      	beq.n	800118a <lcd_goto+0x1e>
 8001186:	23c0      	movs	r3, #192	@ 0xc0
 8001188:	e000      	b.n	800118c <lcd_goto+0x20>
 800118a:	2380      	movs	r3, #128	@ 0x80
 800118c:	1dfa      	adds	r2, r7, #7
 800118e:	7812      	ldrb	r2, [r2, #0]
 8001190:	189b      	adds	r3, r3, r2
 8001192:	b2db      	uxtb	r3, r3
 8001194:	0018      	movs	r0, r3
 8001196:	f7ff ff23 	bl	8000fe0 <lcd_cmd>
 800119a:	46c0      	nop			@ (mov r8, r8)
 800119c:	46bd      	mov	sp, r7
 800119e:	b002      	add	sp, #8
 80011a0:	bd80      	pop	{r7, pc}

080011a2 <lcd_puts>:
static void lcd_puts(const char *s){ while(*s) lcd_data(*s++); }
 80011a2:	b580      	push	{r7, lr}
 80011a4:	b082      	sub	sp, #8
 80011a6:	af00      	add	r7, sp, #0
 80011a8:	6078      	str	r0, [r7, #4]
 80011aa:	e006      	b.n	80011ba <lcd_puts+0x18>
 80011ac:	687b      	ldr	r3, [r7, #4]
 80011ae:	1c5a      	adds	r2, r3, #1
 80011b0:	607a      	str	r2, [r7, #4]
 80011b2:	781b      	ldrb	r3, [r3, #0]
 80011b4:	0018      	movs	r0, r3
 80011b6:	f7ff ff51 	bl	800105c <lcd_data>
 80011ba:	687b      	ldr	r3, [r7, #4]
 80011bc:	781b      	ldrb	r3, [r3, #0]
 80011be:	2b00      	cmp	r3, #0
 80011c0:	d1f4      	bne.n	80011ac <lcd_puts+0xa>
 80011c2:	46c0      	nop			@ (mov r8, r8)
 80011c4:	46c0      	nop			@ (mov r8, r8)
 80011c6:	46bd      	mov	sp, r7
 80011c8:	b002      	add	sp, #8
 80011ca:	bd80      	pop	{r7, pc}

080011cc <lcd_print_window16>:
static void lcd_print_window16(const char *s,uint16_t len,uint16_t start){
 80011cc:	b590      	push	{r4, r7, lr}
 80011ce:	b089      	sub	sp, #36	@ 0x24
 80011d0:	af00      	add	r7, sp, #0
 80011d2:	6078      	str	r0, [r7, #4]
 80011d4:	0008      	movs	r0, r1
 80011d6:	0011      	movs	r1, r2
 80011d8:	1cbb      	adds	r3, r7, #2
 80011da:	1c02      	adds	r2, r0, #0
 80011dc:	801a      	strh	r2, [r3, #0]
 80011de:	003b      	movs	r3, r7
 80011e0:	1c0a      	adds	r2, r1, #0
 80011e2:	801a      	strh	r2, [r3, #0]
  char b[17]; for(int i=0;i<16;i++) b[i]=s[(start+i)%len]; b[16]='\0';
 80011e4:	2300      	movs	r3, #0
 80011e6:	61fb      	str	r3, [r7, #28]
 80011e8:	e017      	b.n	800121a <lcd_print_window16+0x4e>
 80011ea:	003b      	movs	r3, r7
 80011ec:	881a      	ldrh	r2, [r3, #0]
 80011ee:	69fb      	ldr	r3, [r7, #28]
 80011f0:	18d2      	adds	r2, r2, r3
 80011f2:	1cbb      	adds	r3, r7, #2
 80011f4:	881b      	ldrh	r3, [r3, #0]
 80011f6:	0019      	movs	r1, r3
 80011f8:	0010      	movs	r0, r2
 80011fa:	f7ff f8ff 	bl	80003fc <__aeabi_idivmod>
 80011fe:	000b      	movs	r3, r1
 8001200:	001a      	movs	r2, r3
 8001202:	687b      	ldr	r3, [r7, #4]
 8001204:	189b      	adds	r3, r3, r2
 8001206:	7819      	ldrb	r1, [r3, #0]
 8001208:	2308      	movs	r3, #8
 800120a:	18fa      	adds	r2, r7, r3
 800120c:	69fb      	ldr	r3, [r7, #28]
 800120e:	18d3      	adds	r3, r2, r3
 8001210:	1c0a      	adds	r2, r1, #0
 8001212:	701a      	strb	r2, [r3, #0]
 8001214:	69fb      	ldr	r3, [r7, #28]
 8001216:	3301      	adds	r3, #1
 8001218:	61fb      	str	r3, [r7, #28]
 800121a:	69fb      	ldr	r3, [r7, #28]
 800121c:	2b0f      	cmp	r3, #15
 800121e:	dde4      	ble.n	80011ea <lcd_print_window16+0x1e>
 8001220:	2408      	movs	r4, #8
 8001222:	193b      	adds	r3, r7, r4
 8001224:	2200      	movs	r2, #0
 8001226:	741a      	strb	r2, [r3, #16]
  lcd_goto(0,0); lcd_puts(b);
 8001228:	2100      	movs	r1, #0
 800122a:	2000      	movs	r0, #0
 800122c:	f7ff ff9e 	bl	800116c <lcd_goto>
 8001230:	193b      	adds	r3, r7, r4
 8001232:	0018      	movs	r0, r3
 8001234:	f7ff ffb5 	bl	80011a2 <lcd_puts>
}
 8001238:	46c0      	nop			@ (mov r8, r8)
 800123a:	46bd      	mov	sp, r7
 800123c:	b009      	add	sp, #36	@ 0x24
 800123e:	bd90      	pop	{r4, r7, pc}

08001240 <keypad_tick_5ms>:

/* ============ Keypad ============ */
static const char keymap[4][4]={{'1','2','3','A'},{'4','5','6','B'},{'7','8','9','C'},{'*','0','#','D'}};
static uint8_t row=0;
static void keypad_tick_5ms(void){
 8001240:	b580      	push	{r7, lr}
 8001242:	b082      	sub	sp, #8
 8001244:	af00      	add	r7, sp, #0
  gpio_set(GPIOB,GPIO_PIN_12|GPIO_PIN_13|GPIO_PIN_14|GPIO_PIN_15);
 8001246:	23f0      	movs	r3, #240	@ 0xf0
 8001248:	021b      	lsls	r3, r3, #8
 800124a:	4a5f      	ldr	r2, [pc, #380]	@ (80013c8 <keypad_tick_5ms+0x188>)
 800124c:	0019      	movs	r1, r3
 800124e:	0010      	movs	r0, r2
 8001250:	f7ff f8f4 	bl	800043c <gpio_set>
  gpio_clr(GPIOB,(GPIO_PIN_12<<row));
 8001254:	4b5d      	ldr	r3, [pc, #372]	@ (80013cc <keypad_tick_5ms+0x18c>)
 8001256:	781b      	ldrb	r3, [r3, #0]
 8001258:	001a      	movs	r2, r3
 800125a:	2380      	movs	r3, #128	@ 0x80
 800125c:	015b      	lsls	r3, r3, #5
 800125e:	4093      	lsls	r3, r2
 8001260:	4a59      	ldr	r2, [pc, #356]	@ (80013c8 <keypad_tick_5ms+0x188>)
 8001262:	0019      	movs	r1, r3
 8001264:	0010      	movs	r0, r2
 8001266:	f7ff f8f5 	bl	8000454 <gpio_clr>
  uint8_t c0=!!gpio_rd(GPIOC,GPIO_PIN_6), c1=!!gpio_rd(GPIOC,GPIO_PIN_7);
 800126a:	4b59      	ldr	r3, [pc, #356]	@ (80013d0 <keypad_tick_5ms+0x190>)
 800126c:	2140      	movs	r1, #64	@ 0x40
 800126e:	0018      	movs	r0, r3
 8001270:	f7ff f8fc 	bl	800046c <gpio_rd>
 8001274:	0003      	movs	r3, r0
 8001276:	1e5a      	subs	r2, r3, #1
 8001278:	4193      	sbcs	r3, r2
 800127a:	b2da      	uxtb	r2, r3
 800127c:	1dbb      	adds	r3, r7, #6
 800127e:	701a      	strb	r2, [r3, #0]
 8001280:	4b53      	ldr	r3, [pc, #332]	@ (80013d0 <keypad_tick_5ms+0x190>)
 8001282:	2180      	movs	r1, #128	@ 0x80
 8001284:	0018      	movs	r0, r3
 8001286:	f7ff f8f1 	bl	800046c <gpio_rd>
 800128a:	0003      	movs	r3, r0
 800128c:	1e5a      	subs	r2, r3, #1
 800128e:	4193      	sbcs	r3, r2
 8001290:	b2da      	uxtb	r2, r3
 8001292:	1d7b      	adds	r3, r7, #5
 8001294:	701a      	strb	r2, [r3, #0]
  uint8_t c2=!!gpio_rd(GPIOC,GPIO_PIN_8), c3=!!gpio_rd(GPIOC,GPIO_PIN_9);
 8001296:	2380      	movs	r3, #128	@ 0x80
 8001298:	005b      	lsls	r3, r3, #1
 800129a:	4a4d      	ldr	r2, [pc, #308]	@ (80013d0 <keypad_tick_5ms+0x190>)
 800129c:	0019      	movs	r1, r3
 800129e:	0010      	movs	r0, r2
 80012a0:	f7ff f8e4 	bl	800046c <gpio_rd>
 80012a4:	0003      	movs	r3, r0
 80012a6:	1e5a      	subs	r2, r3, #1
 80012a8:	4193      	sbcs	r3, r2
 80012aa:	b2da      	uxtb	r2, r3
 80012ac:	1d3b      	adds	r3, r7, #4
 80012ae:	701a      	strb	r2, [r3, #0]
 80012b0:	2380      	movs	r3, #128	@ 0x80
 80012b2:	009b      	lsls	r3, r3, #2
 80012b4:	4a46      	ldr	r2, [pc, #280]	@ (80013d0 <keypad_tick_5ms+0x190>)
 80012b6:	0019      	movs	r1, r3
 80012b8:	0010      	movs	r0, r2
 80012ba:	f7ff f8d7 	bl	800046c <gpio_rd>
 80012be:	0003      	movs	r3, r0
 80012c0:	1e5a      	subs	r2, r3, #1
 80012c2:	4193      	sbcs	r3, r2
 80012c4:	b2da      	uxtb	r2, r3
 80012c6:	1cfb      	adds	r3, r7, #3
 80012c8:	701a      	strb	r2, [r3, #0]
  uint8_t cols=(c0<<0)|(c1<<1)|(c2<<2)|(c3<<3);
 80012ca:	1d7b      	adds	r3, r7, #5
 80012cc:	781b      	ldrb	r3, [r3, #0]
 80012ce:	b25b      	sxtb	r3, r3
 80012d0:	18db      	adds	r3, r3, r3
 80012d2:	b25a      	sxtb	r2, r3
 80012d4:	1dbb      	adds	r3, r7, #6
 80012d6:	781b      	ldrb	r3, [r3, #0]
 80012d8:	b25b      	sxtb	r3, r3
 80012da:	4313      	orrs	r3, r2
 80012dc:	b25a      	sxtb	r2, r3
 80012de:	1d3b      	adds	r3, r7, #4
 80012e0:	781b      	ldrb	r3, [r3, #0]
 80012e2:	b25b      	sxtb	r3, r3
 80012e4:	009b      	lsls	r3, r3, #2
 80012e6:	b25b      	sxtb	r3, r3
 80012e8:	4313      	orrs	r3, r2
 80012ea:	b25a      	sxtb	r2, r3
 80012ec:	1cfb      	adds	r3, r7, #3
 80012ee:	781b      	ldrb	r3, [r3, #0]
 80012f0:	b25b      	sxtb	r3, r3
 80012f2:	00db      	lsls	r3, r3, #3
 80012f4:	b25b      	sxtb	r3, r3
 80012f6:	4313      	orrs	r3, r2
 80012f8:	b25a      	sxtb	r2, r3
 80012fa:	1cbb      	adds	r3, r7, #2
 80012fc:	701a      	strb	r2, [r3, #0]
  for(uint8_t col=0; col<4; col++){
 80012fe:	1dfb      	adds	r3, r7, #7
 8001300:	2200      	movs	r2, #0
 8001302:	701a      	strb	r2, [r3, #0]
 8001304:	e04e      	b.n	80013a4 <keypad_tick_5ms+0x164>
    static uint8_t st[4][4]={{1,1,1,1},{1,1,1,1},{1,1,1,1},{1,1,1,1}};
    uint8_t val=(cols>>col)&1;
 8001306:	1cbb      	adds	r3, r7, #2
 8001308:	781a      	ldrb	r2, [r3, #0]
 800130a:	1dfb      	adds	r3, r7, #7
 800130c:	781b      	ldrb	r3, [r3, #0]
 800130e:	411a      	asrs	r2, r3
 8001310:	0013      	movs	r3, r2
 8001312:	b2da      	uxtb	r2, r3
 8001314:	1c7b      	adds	r3, r7, #1
 8001316:	2101      	movs	r1, #1
 8001318:	400a      	ands	r2, r1
 800131a:	701a      	strb	r2, [r3, #0]
    if(st[row][col] && !val){ q_put((uint8_t)keymap[row][col]); st[row][col]=0; }
 800131c:	4b2b      	ldr	r3, [pc, #172]	@ (80013cc <keypad_tick_5ms+0x18c>)
 800131e:	781b      	ldrb	r3, [r3, #0]
 8001320:	001a      	movs	r2, r3
 8001322:	1dfb      	adds	r3, r7, #7
 8001324:	781b      	ldrb	r3, [r3, #0]
 8001326:	492b      	ldr	r1, [pc, #172]	@ (80013d4 <keypad_tick_5ms+0x194>)
 8001328:	0092      	lsls	r2, r2, #2
 800132a:	188a      	adds	r2, r1, r2
 800132c:	5cd3      	ldrb	r3, [r2, r3]
 800132e:	2b00      	cmp	r3, #0
 8001330:	d01a      	beq.n	8001368 <keypad_tick_5ms+0x128>
 8001332:	1c7b      	adds	r3, r7, #1
 8001334:	781b      	ldrb	r3, [r3, #0]
 8001336:	2b00      	cmp	r3, #0
 8001338:	d116      	bne.n	8001368 <keypad_tick_5ms+0x128>
 800133a:	4b24      	ldr	r3, [pc, #144]	@ (80013cc <keypad_tick_5ms+0x18c>)
 800133c:	781b      	ldrb	r3, [r3, #0]
 800133e:	001a      	movs	r2, r3
 8001340:	1dfb      	adds	r3, r7, #7
 8001342:	781b      	ldrb	r3, [r3, #0]
 8001344:	4924      	ldr	r1, [pc, #144]	@ (80013d8 <keypad_tick_5ms+0x198>)
 8001346:	0092      	lsls	r2, r2, #2
 8001348:	188a      	adds	r2, r1, r2
 800134a:	5cd3      	ldrb	r3, [r2, r3]
 800134c:	0018      	movs	r0, r3
 800134e:	f7ff f89b 	bl	8000488 <q_put>
 8001352:	4b1e      	ldr	r3, [pc, #120]	@ (80013cc <keypad_tick_5ms+0x18c>)
 8001354:	781b      	ldrb	r3, [r3, #0]
 8001356:	001a      	movs	r2, r3
 8001358:	1dfb      	adds	r3, r7, #7
 800135a:	781b      	ldrb	r3, [r3, #0]
 800135c:	491d      	ldr	r1, [pc, #116]	@ (80013d4 <keypad_tick_5ms+0x194>)
 800135e:	0092      	lsls	r2, r2, #2
 8001360:	188a      	adds	r2, r1, r2
 8001362:	2100      	movs	r1, #0
 8001364:	54d1      	strb	r1, [r2, r3]
 8001366:	e018      	b.n	800139a <keypad_tick_5ms+0x15a>
    else if(!st[row][col] && val){ st[row][col]=1; }
 8001368:	4b18      	ldr	r3, [pc, #96]	@ (80013cc <keypad_tick_5ms+0x18c>)
 800136a:	781b      	ldrb	r3, [r3, #0]
 800136c:	001a      	movs	r2, r3
 800136e:	1dfb      	adds	r3, r7, #7
 8001370:	781b      	ldrb	r3, [r3, #0]
 8001372:	4918      	ldr	r1, [pc, #96]	@ (80013d4 <keypad_tick_5ms+0x194>)
 8001374:	0092      	lsls	r2, r2, #2
 8001376:	188a      	adds	r2, r1, r2
 8001378:	5cd3      	ldrb	r3, [r2, r3]
 800137a:	2b00      	cmp	r3, #0
 800137c:	d10d      	bne.n	800139a <keypad_tick_5ms+0x15a>
 800137e:	1c7b      	adds	r3, r7, #1
 8001380:	781b      	ldrb	r3, [r3, #0]
 8001382:	2b00      	cmp	r3, #0
 8001384:	d009      	beq.n	800139a <keypad_tick_5ms+0x15a>
 8001386:	4b11      	ldr	r3, [pc, #68]	@ (80013cc <keypad_tick_5ms+0x18c>)
 8001388:	781b      	ldrb	r3, [r3, #0]
 800138a:	001a      	movs	r2, r3
 800138c:	1dfb      	adds	r3, r7, #7
 800138e:	781b      	ldrb	r3, [r3, #0]
 8001390:	4910      	ldr	r1, [pc, #64]	@ (80013d4 <keypad_tick_5ms+0x194>)
 8001392:	0092      	lsls	r2, r2, #2
 8001394:	188a      	adds	r2, r1, r2
 8001396:	2101      	movs	r1, #1
 8001398:	54d1      	strb	r1, [r2, r3]
  for(uint8_t col=0; col<4; col++){
 800139a:	1dfb      	adds	r3, r7, #7
 800139c:	781a      	ldrb	r2, [r3, #0]
 800139e:	1dfb      	adds	r3, r7, #7
 80013a0:	3201      	adds	r2, #1
 80013a2:	701a      	strb	r2, [r3, #0]
 80013a4:	1dfb      	adds	r3, r7, #7
 80013a6:	781b      	ldrb	r3, [r3, #0]
 80013a8:	2b03      	cmp	r3, #3
 80013aa:	d9ac      	bls.n	8001306 <keypad_tick_5ms+0xc6>
  }
  row=(row+1)&3;
 80013ac:	4b07      	ldr	r3, [pc, #28]	@ (80013cc <keypad_tick_5ms+0x18c>)
 80013ae:	781b      	ldrb	r3, [r3, #0]
 80013b0:	3301      	adds	r3, #1
 80013b2:	b2db      	uxtb	r3, r3
 80013b4:	2203      	movs	r2, #3
 80013b6:	4013      	ands	r3, r2
 80013b8:	b2da      	uxtb	r2, r3
 80013ba:	4b04      	ldr	r3, [pc, #16]	@ (80013cc <keypad_tick_5ms+0x18c>)
 80013bc:	701a      	strb	r2, [r3, #0]
}
 80013be:	46c0      	nop			@ (mov r8, r8)
 80013c0:	46bd      	mov	sp, r7
 80013c2:	b002      	add	sp, #8
 80013c4:	bd80      	pop	{r7, pc}
 80013c6:	46c0      	nop			@ (mov r8, r8)
 80013c8:	50000400 	.word	0x50000400
 80013cc:	200000d8 	.word	0x200000d8
 80013d0:	50000800 	.word	0x50000800
 80013d4:	20000018 	.word	0x20000018
 80013d8:	08002b54 	.word	0x08002b54

080013dc <leds_update>:

/* ============ FSM y helpers ============ */
static void leds_update(void){
 80013dc:	b580      	push	{r7, lr}
 80013de:	af00      	add	r7, sp, #0
  gpio_clr(GPIOA,GPIO_PIN_9|GPIO_PIN_10|GPIO_PIN_11);
 80013e0:	23e0      	movs	r3, #224	@ 0xe0
 80013e2:	011a      	lsls	r2, r3, #4
 80013e4:	23a0      	movs	r3, #160	@ 0xa0
 80013e6:	05db      	lsls	r3, r3, #23
 80013e8:	0011      	movs	r1, r2
 80013ea:	0018      	movs	r0, r3
 80013ec:	f7ff f832 	bl	8000454 <gpio_clr>
  if(temp_set<=33) gpio_set(GPIOA,GPIO_PIN_9);
 80013f0:	4b13      	ldr	r3, [pc, #76]	@ (8001440 <leds_update+0x64>)
 80013f2:	781b      	ldrb	r3, [r3, #0]
 80013f4:	b2db      	uxtb	r3, r3
 80013f6:	2b21      	cmp	r3, #33	@ 0x21
 80013f8:	d808      	bhi.n	800140c <leds_update+0x30>
 80013fa:	2380      	movs	r3, #128	@ 0x80
 80013fc:	009a      	lsls	r2, r3, #2
 80013fe:	23a0      	movs	r3, #160	@ 0xa0
 8001400:	05db      	lsls	r3, r3, #23
 8001402:	0011      	movs	r1, r2
 8001404:	0018      	movs	r0, r3
 8001406:	f7ff f819 	bl	800043c <gpio_set>
  else if(temp_set<=66) gpio_set(GPIOA,GPIO_PIN_10);
  else gpio_set(GPIOA,GPIO_PIN_11);
}
 800140a:	e015      	b.n	8001438 <leds_update+0x5c>
  else if(temp_set<=66) gpio_set(GPIOA,GPIO_PIN_10);
 800140c:	4b0c      	ldr	r3, [pc, #48]	@ (8001440 <leds_update+0x64>)
 800140e:	781b      	ldrb	r3, [r3, #0]
 8001410:	b2db      	uxtb	r3, r3
 8001412:	2b42      	cmp	r3, #66	@ 0x42
 8001414:	d808      	bhi.n	8001428 <leds_update+0x4c>
 8001416:	2380      	movs	r3, #128	@ 0x80
 8001418:	00da      	lsls	r2, r3, #3
 800141a:	23a0      	movs	r3, #160	@ 0xa0
 800141c:	05db      	lsls	r3, r3, #23
 800141e:	0011      	movs	r1, r2
 8001420:	0018      	movs	r0, r3
 8001422:	f7ff f80b 	bl	800043c <gpio_set>
}
 8001426:	e007      	b.n	8001438 <leds_update+0x5c>
  else gpio_set(GPIOA,GPIO_PIN_11);
 8001428:	2380      	movs	r3, #128	@ 0x80
 800142a:	011a      	lsls	r2, r3, #4
 800142c:	23a0      	movs	r3, #160	@ 0xa0
 800142e:	05db      	lsls	r3, r3, #23
 8001430:	0011      	movs	r1, r2
 8001432:	0018      	movs	r0, r3
 8001434:	f7ff f802 	bl	800043c <gpio_set>
}
 8001438:	46c0      	nop			@ (mov r8, r8)
 800143a:	46bd      	mov	sp, r7
 800143c:	bd80      	pop	{r7, pc}
 800143e:	46c0      	nop			@ (mov r8, r8)
 8001440:	200000a4 	.word	0x200000a4

08001444 <fmt_mmss>:

static void fmt_mmss(uint16_t s,char *out){
 8001444:	b5f0      	push	{r4, r5, r6, r7, lr}
 8001446:	b085      	sub	sp, #20
 8001448:	af00      	add	r7, sp, #0
 800144a:	0002      	movs	r2, r0
 800144c:	6039      	str	r1, [r7, #0]
 800144e:	1dbb      	adds	r3, r7, #6
 8001450:	801a      	strh	r2, [r3, #0]
  uint16_t m=s/60, ss=s%60;
 8001452:	250e      	movs	r5, #14
 8001454:	197c      	adds	r4, r7, r5
 8001456:	1dbb      	adds	r3, r7, #6
 8001458:	881b      	ldrh	r3, [r3, #0]
 800145a:	213c      	movs	r1, #60	@ 0x3c
 800145c:	0018      	movs	r0, r3
 800145e:	f7fe fe5d 	bl	800011c <__udivsi3>
 8001462:	0003      	movs	r3, r0
 8001464:	8023      	strh	r3, [r4, #0]
 8001466:	260c      	movs	r6, #12
 8001468:	19bc      	adds	r4, r7, r6
 800146a:	1dbb      	adds	r3, r7, #6
 800146c:	881b      	ldrh	r3, [r3, #0]
 800146e:	213c      	movs	r1, #60	@ 0x3c
 8001470:	0018      	movs	r0, r3
 8001472:	f7fe fed9 	bl	8000228 <__aeabi_uidivmod>
 8001476:	000b      	movs	r3, r1
 8001478:	8023      	strh	r3, [r4, #0]
  out[0]='0'+((m/10)%10); out[1]='0'+(m%10); out[2]=':'; out[3]='0'+(ss/10); out[4]='0'+(ss%10); out[5]='\0';
 800147a:	002c      	movs	r4, r5
 800147c:	193b      	adds	r3, r7, r4
 800147e:	881b      	ldrh	r3, [r3, #0]
 8001480:	210a      	movs	r1, #10
 8001482:	0018      	movs	r0, r3
 8001484:	f7fe fe4a 	bl	800011c <__udivsi3>
 8001488:	0003      	movs	r3, r0
 800148a:	b29b      	uxth	r3, r3
 800148c:	210a      	movs	r1, #10
 800148e:	0018      	movs	r0, r3
 8001490:	f7fe feca 	bl	8000228 <__aeabi_uidivmod>
 8001494:	000b      	movs	r3, r1
 8001496:	b29b      	uxth	r3, r3
 8001498:	b2db      	uxtb	r3, r3
 800149a:	3330      	adds	r3, #48	@ 0x30
 800149c:	b2da      	uxtb	r2, r3
 800149e:	683b      	ldr	r3, [r7, #0]
 80014a0:	701a      	strb	r2, [r3, #0]
 80014a2:	193b      	adds	r3, r7, r4
 80014a4:	881b      	ldrh	r3, [r3, #0]
 80014a6:	210a      	movs	r1, #10
 80014a8:	0018      	movs	r0, r3
 80014aa:	f7fe febd 	bl	8000228 <__aeabi_uidivmod>
 80014ae:	000b      	movs	r3, r1
 80014b0:	b29b      	uxth	r3, r3
 80014b2:	b2da      	uxtb	r2, r3
 80014b4:	683b      	ldr	r3, [r7, #0]
 80014b6:	3301      	adds	r3, #1
 80014b8:	3230      	adds	r2, #48	@ 0x30
 80014ba:	b2d2      	uxtb	r2, r2
 80014bc:	701a      	strb	r2, [r3, #0]
 80014be:	683b      	ldr	r3, [r7, #0]
 80014c0:	3302      	adds	r3, #2
 80014c2:	223a      	movs	r2, #58	@ 0x3a
 80014c4:	701a      	strb	r2, [r3, #0]
 80014c6:	19bb      	adds	r3, r7, r6
 80014c8:	881b      	ldrh	r3, [r3, #0]
 80014ca:	210a      	movs	r1, #10
 80014cc:	0018      	movs	r0, r3
 80014ce:	f7fe fe25 	bl	800011c <__udivsi3>
 80014d2:	0003      	movs	r3, r0
 80014d4:	b29b      	uxth	r3, r3
 80014d6:	b2da      	uxtb	r2, r3
 80014d8:	683b      	ldr	r3, [r7, #0]
 80014da:	3303      	adds	r3, #3
 80014dc:	3230      	adds	r2, #48	@ 0x30
 80014de:	b2d2      	uxtb	r2, r2
 80014e0:	701a      	strb	r2, [r3, #0]
 80014e2:	19bb      	adds	r3, r7, r6
 80014e4:	881b      	ldrh	r3, [r3, #0]
 80014e6:	210a      	movs	r1, #10
 80014e8:	0018      	movs	r0, r3
 80014ea:	f7fe fe9d 	bl	8000228 <__aeabi_uidivmod>
 80014ee:	000b      	movs	r3, r1
 80014f0:	b29b      	uxth	r3, r3
 80014f2:	b2da      	uxtb	r2, r3
 80014f4:	683b      	ldr	r3, [r7, #0]
 80014f6:	3304      	adds	r3, #4
 80014f8:	3230      	adds	r2, #48	@ 0x30
 80014fa:	b2d2      	uxtb	r2, r2
 80014fc:	701a      	strb	r2, [r3, #0]
 80014fe:	683b      	ldr	r3, [r7, #0]
 8001500:	3305      	adds	r3, #5
 8001502:	2200      	movs	r2, #0
 8001504:	701a      	strb	r2, [r3, #0]
}
 8001506:	46c0      	nop			@ (mov r8, r8)
 8001508:	46bd      	mov	sp, r7
 800150a:	b005      	add	sp, #20
 800150c:	bdf0      	pop	{r4, r5, r6, r7, pc}

0800150e <raw_to_seconds>:
static uint16_t raw_to_seconds(uint16_t raw){ return (raw/100u)*60u + (raw%100u); }
 800150e:	b590      	push	{r4, r7, lr}
 8001510:	b083      	sub	sp, #12
 8001512:	af00      	add	r7, sp, #0
 8001514:	0002      	movs	r2, r0
 8001516:	1dbb      	adds	r3, r7, #6
 8001518:	801a      	strh	r2, [r3, #0]
 800151a:	1dbb      	adds	r3, r7, #6
 800151c:	881b      	ldrh	r3, [r3, #0]
 800151e:	2164      	movs	r1, #100	@ 0x64
 8001520:	0018      	movs	r0, r3
 8001522:	f7fe fdfb 	bl	800011c <__udivsi3>
 8001526:	0003      	movs	r3, r0
 8001528:	b29b      	uxth	r3, r3
 800152a:	223c      	movs	r2, #60	@ 0x3c
 800152c:	4353      	muls	r3, r2
 800152e:	b29c      	uxth	r4, r3
 8001530:	1dbb      	adds	r3, r7, #6
 8001532:	881b      	ldrh	r3, [r3, #0]
 8001534:	2164      	movs	r1, #100	@ 0x64
 8001536:	0018      	movs	r0, r3
 8001538:	f7fe fe76 	bl	8000228 <__aeabi_uidivmod>
 800153c:	000b      	movs	r3, r1
 800153e:	b29b      	uxth	r3, r3
 8001540:	18e3      	adds	r3, r4, r3
 8001542:	b29b      	uxth	r3, r3
 8001544:	0018      	movs	r0, r3
 8001546:	46bd      	mov	sp, r7
 8001548:	b003      	add	sp, #12
 800154a:	bd90      	pop	{r4, r7, pc}

0800154c <lcd_tick_5ms>:

static uint16_t edit_time_raw=0, edit_temp_raw=0;
static uint16_t sec_acc_run=0;

static void lcd_tick_5ms(void){
 800154c:	b580      	push	{r7, lr}
 800154e:	b086      	sub	sp, #24
 8001550:	af00      	add	r7, sp, #0
  if(fsm_state==ST_IDLE){
 8001552:	4b3d      	ldr	r3, [pc, #244]	@ (8001648 <lcd_tick_5ms+0xfc>)
 8001554:	781b      	ldrb	r3, [r3, #0]
 8001556:	b2db      	uxtb	r3, r3
 8001558:	2b00      	cmp	r3, #0
 800155a:	d139      	bne.n	80015d0 <lcd_tick_5ms+0x84>
    menu_scroll_acc+=5;
 800155c:	4b3b      	ldr	r3, [pc, #236]	@ (800164c <lcd_tick_5ms+0x100>)
 800155e:	881b      	ldrh	r3, [r3, #0]
 8001560:	3305      	adds	r3, #5
 8001562:	b29a      	uxth	r2, r3
 8001564:	4b39      	ldr	r3, [pc, #228]	@ (800164c <lcd_tick_5ms+0x100>)
 8001566:	801a      	strh	r2, [r3, #0]
    if(menu_scroll_acc>=MENU_SCROLL_PERIOD_MS){
 8001568:	4b38      	ldr	r3, [pc, #224]	@ (800164c <lcd_tick_5ms+0x100>)
 800156a:	881b      	ldrh	r3, [r3, #0]
 800156c:	4a38      	ldr	r2, [pc, #224]	@ (8001650 <lcd_tick_5ms+0x104>)
 800156e:	4293      	cmp	r3, r2
 8001570:	d967      	bls.n	8001642 <lcd_tick_5ms+0xf6>
      menu_scroll_acc=0;
 8001572:	4b36      	ldr	r3, [pc, #216]	@ (800164c <lcd_tick_5ms+0x100>)
 8001574:	2200      	movs	r2, #0
 8001576:	801a      	strh	r2, [r3, #0]
      menu_pos=(menu_pos+1)%((uint16_t)(sizeof(menu_text)-1));
 8001578:	4b36      	ldr	r3, [pc, #216]	@ (8001654 <lcd_tick_5ms+0x108>)
 800157a:	881b      	ldrh	r3, [r3, #0]
 800157c:	3301      	adds	r3, #1
 800157e:	2129      	movs	r1, #41	@ 0x29
 8001580:	0018      	movs	r0, r3
 8001582:	f7fe ff3b 	bl	80003fc <__aeabi_idivmod>
 8001586:	000b      	movs	r3, r1
 8001588:	b29a      	uxth	r2, r3
 800158a:	4b32      	ldr	r3, [pc, #200]	@ (8001654 <lcd_tick_5ms+0x108>)
 800158c:	801a      	strh	r2, [r3, #0]
      lcd_print_window16(menu_text,(uint16_t)(sizeof(menu_text)-1),menu_pos);
 800158e:	4b31      	ldr	r3, [pc, #196]	@ (8001654 <lcd_tick_5ms+0x108>)
 8001590:	881a      	ldrh	r2, [r3, #0]
 8001592:	4b31      	ldr	r3, [pc, #196]	@ (8001658 <lcd_tick_5ms+0x10c>)
 8001594:	2129      	movs	r1, #41	@ 0x29
 8001596:	0018      	movs	r0, r3
 8001598:	f7ff fe18 	bl	80011cc <lcd_print_window16>
      lcd_goto(0,1);
 800159c:	2101      	movs	r1, #1
 800159e:	2000      	movs	r0, #0
 80015a0:	f7ff fde4 	bl	800116c <lcd_goto>
      if(have_temp){ char l2[17]; snprintf(l2,sizeof(l2),"Temp: %02uC",temp_set); lcd_puts(l2); }
 80015a4:	4b2d      	ldr	r3, [pc, #180]	@ (800165c <lcd_tick_5ms+0x110>)
 80015a6:	781b      	ldrb	r3, [r3, #0]
 80015a8:	2b00      	cmp	r3, #0
 80015aa:	d00c      	beq.n	80015c6 <lcd_tick_5ms+0x7a>
 80015ac:	4b2c      	ldr	r3, [pc, #176]	@ (8001660 <lcd_tick_5ms+0x114>)
 80015ae:	781b      	ldrb	r3, [r3, #0]
 80015b0:	b2db      	uxtb	r3, r3
 80015b2:	4a2c      	ldr	r2, [pc, #176]	@ (8001664 <lcd_tick_5ms+0x118>)
 80015b4:	1d38      	adds	r0, r7, #4
 80015b6:	2111      	movs	r1, #17
 80015b8:	f000 fd44 	bl	8002044 <sniprintf>
 80015bc:	1d3b      	adds	r3, r7, #4
 80015be:	0018      	movs	r0, r3
 80015c0:	f7ff fdef 	bl	80011a2 <lcd_puts>
 80015c4:	e03d      	b.n	8001642 <lcd_tick_5ms+0xf6>
      else lcd_puts("Temp: --C     ");
 80015c6:	4b28      	ldr	r3, [pc, #160]	@ (8001668 <lcd_tick_5ms+0x11c>)
 80015c8:	0018      	movs	r0, r3
 80015ca:	f7ff fdea 	bl	80011a2 <lcd_puts>
 80015ce:	e038      	b.n	8001642 <lcd_tick_5ms+0xf6>
    }
  } else if(fsm_state==ST_PRESET){
 80015d0:	4b1d      	ldr	r3, [pc, #116]	@ (8001648 <lcd_tick_5ms+0xfc>)
 80015d2:	781b      	ldrb	r3, [r3, #0]
 80015d4:	b2db      	uxtb	r3, r3
 80015d6:	2b03      	cmp	r3, #3
 80015d8:	d133      	bne.n	8001642 <lcd_tick_5ms+0xf6>
    if (preset_locked) return;  /* mantener fijo hasta '*' */
 80015da:	4b24      	ldr	r3, [pc, #144]	@ (800166c <lcd_tick_5ms+0x120>)
 80015dc:	781b      	ldrb	r3, [r3, #0]
 80015de:	2b00      	cmp	r3, #0
 80015e0:	d12e      	bne.n	8001640 <lcd_tick_5ms+0xf4>
    preset_acc+=5;
 80015e2:	4b23      	ldr	r3, [pc, #140]	@ (8001670 <lcd_tick_5ms+0x124>)
 80015e4:	881b      	ldrh	r3, [r3, #0]
 80015e6:	3305      	adds	r3, #5
 80015e8:	b29a      	uxth	r2, r3
 80015ea:	4b21      	ldr	r3, [pc, #132]	@ (8001670 <lcd_tick_5ms+0x124>)
 80015ec:	801a      	strh	r2, [r3, #0]
    if(preset_acc>=PRESET_ROTATE_MS){
 80015ee:	4b20      	ldr	r3, [pc, #128]	@ (8001670 <lcd_tick_5ms+0x124>)
 80015f0:	881b      	ldrh	r3, [r3, #0]
 80015f2:	4a20      	ldr	r2, [pc, #128]	@ (8001674 <lcd_tick_5ms+0x128>)
 80015f4:	4293      	cmp	r3, r2
 80015f6:	d924      	bls.n	8001642 <lcd_tick_5ms+0xf6>
      preset_acc=0;
 80015f8:	4b1d      	ldr	r3, [pc, #116]	@ (8001670 <lcd_tick_5ms+0x124>)
 80015fa:	2200      	movs	r2, #0
 80015fc:	801a      	strh	r2, [r3, #0]
      preset_idx=(preset_idx+1)&3;
 80015fe:	4b1e      	ldr	r3, [pc, #120]	@ (8001678 <lcd_tick_5ms+0x12c>)
 8001600:	781b      	ldrb	r3, [r3, #0]
 8001602:	3301      	adds	r3, #1
 8001604:	b2db      	uxtb	r3, r3
 8001606:	2203      	movs	r2, #3
 8001608:	4013      	ands	r3, r2
 800160a:	b2da      	uxtb	r2, r3
 800160c:	4b1a      	ldr	r3, [pc, #104]	@ (8001678 <lcd_tick_5ms+0x12c>)
 800160e:	701a      	strb	r2, [r3, #0]
      lcd_clear();
 8001610:	f7ff fda4 	bl	800115c <lcd_clear>
      lcd_goto(0,0); lcd_puts("Presets");
 8001614:	2100      	movs	r1, #0
 8001616:	2000      	movs	r0, #0
 8001618:	f7ff fda8 	bl	800116c <lcd_goto>
 800161c:	4b17      	ldr	r3, [pc, #92]	@ (800167c <lcd_tick_5ms+0x130>)
 800161e:	0018      	movs	r0, r3
 8001620:	f7ff fdbf 	bl	80011a2 <lcd_puts>
      lcd_goto(0,1); lcd_puts(PRESET_NAMES[preset_idx]);
 8001624:	2101      	movs	r1, #1
 8001626:	2000      	movs	r0, #0
 8001628:	f7ff fda0 	bl	800116c <lcd_goto>
 800162c:	4b12      	ldr	r3, [pc, #72]	@ (8001678 <lcd_tick_5ms+0x12c>)
 800162e:	781b      	ldrb	r3, [r3, #0]
 8001630:	001a      	movs	r2, r3
 8001632:	4b13      	ldr	r3, [pc, #76]	@ (8001680 <lcd_tick_5ms+0x134>)
 8001634:	0092      	lsls	r2, r2, #2
 8001636:	58d3      	ldr	r3, [r2, r3]
 8001638:	0018      	movs	r0, r3
 800163a:	f7ff fdb2 	bl	80011a2 <lcd_puts>
 800163e:	e000      	b.n	8001642 <lcd_tick_5ms+0xf6>
    if (preset_locked) return;  /* mantener fijo hasta '*' */
 8001640:	46c0      	nop			@ (mov r8, r8)
    }
  }
}
 8001642:	46bd      	mov	sp, r7
 8001644:	b006      	add	sp, #24
 8001646:	bd80      	pop	{r7, pc}
 8001648:	2000009e 	.word	0x2000009e
 800164c:	200000c2 	.word	0x200000c2
 8001650:	000002ed 	.word	0x000002ed
 8001654:	200000c4 	.word	0x200000c4
 8001658:	08002b20 	.word	0x08002b20
 800165c:	200000a5 	.word	0x200000a5
 8001660:	200000a4 	.word	0x200000a4
 8001664:	08002a0c 	.word	0x08002a0c
 8001668:	08002a18 	.word	0x08002a18
 800166c:	200000c9 	.word	0x200000c9
 8001670:	200000c6 	.word	0x200000c6
 8001674:	000005db 	.word	0x000005db
 8001678:	200000c8 	.word	0x200000c8
 800167c:	08002a28 	.word	0x08002a28
 8001680:	20000004 	.word	0x20000004

08001684 <start_if_possible>:

static void start_if_possible(void){
 8001684:	b580      	push	{r7, lr}
 8001686:	af00      	add	r7, sp, #0
  if(!door_closed) return;
 8001688:	4b27      	ldr	r3, [pc, #156]	@ (8001728 <start_if_possible+0xa4>)
 800168a:	781b      	ldrb	r3, [r3, #0]
 800168c:	2b00      	cmp	r3, #0
 800168e:	d048      	beq.n	8001722 <start_if_possible+0x9e>

  if(fsm_state == ST_PAUSE && time_left_s > 0){
 8001690:	4b26      	ldr	r3, [pc, #152]	@ (800172c <start_if_possible+0xa8>)
 8001692:	781b      	ldrb	r3, [r3, #0]
 8001694:	b2db      	uxtb	r3, r3
 8001696:	2b05      	cmp	r3, #5
 8001698:	d120      	bne.n	80016dc <start_if_possible+0x58>
 800169a:	4b25      	ldr	r3, [pc, #148]	@ (8001730 <start_if_possible+0xac>)
 800169c:	881b      	ldrh	r3, [r3, #0]
 800169e:	b29b      	uxth	r3, r3
 80016a0:	2b00      	cmp	r3, #0
 80016a2:	d01b      	beq.n	80016dc <start_if_possible+0x58>
    fsm_state = ST_RUNNING;
 80016a4:	4b21      	ldr	r3, [pc, #132]	@ (800172c <start_if_possible+0xa8>)
 80016a6:	2204      	movs	r2, #4
 80016a8:	701a      	strb	r2, [r3, #0]
    sec_acc_run = 0;
 80016aa:	4b22      	ldr	r3, [pc, #136]	@ (8001734 <start_if_possible+0xb0>)
 80016ac:	2200      	movs	r2, #0
 80016ae:	801a      	strh	r2, [r3, #0]
    lcd_clear(); lcd_goto(0,0); lcd_puts("Calentando");
 80016b0:	f7ff fd54 	bl	800115c <lcd_clear>
 80016b4:	2100      	movs	r1, #0
 80016b6:	2000      	movs	r0, #0
 80016b8:	f7ff fd58 	bl	800116c <lcd_goto>
 80016bc:	4b1e      	ldr	r3, [pc, #120]	@ (8001738 <start_if_possible+0xb4>)
 80016be:	0018      	movs	r0, r3
 80016c0:	f7ff fd6f 	bl	80011a2 <lcd_puts>
    show_time_7seg(time_left_s);
 80016c4:	4b1a      	ldr	r3, [pc, #104]	@ (8001730 <start_if_possible+0xac>)
 80016c6:	881b      	ldrh	r3, [r3, #0]
 80016c8:	b29b      	uxth	r3, r3
 80016ca:	0018      	movs	r0, r3
 80016cc:	f7ff fb7c 	bl	8000dc8 <show_time_7seg>
    stepper_start();
 80016d0:	f7ff f856 	bl	8000780 <stepper_start>
    door_pause = 0;
 80016d4:	4b19      	ldr	r3, [pc, #100]	@ (800173c <start_if_possible+0xb8>)
 80016d6:	2200      	movs	r2, #0
 80016d8:	701a      	strb	r2, [r3, #0]
    return;
 80016da:	e023      	b.n	8001724 <start_if_possible+0xa0>
  }
  if(time_set_s > 0){
 80016dc:	4b18      	ldr	r3, [pc, #96]	@ (8001740 <start_if_possible+0xbc>)
 80016de:	881b      	ldrh	r3, [r3, #0]
 80016e0:	b29b      	uxth	r3, r3
 80016e2:	2b00      	cmp	r3, #0
 80016e4:	d01e      	beq.n	8001724 <start_if_possible+0xa0>
    time_left_s = time_set_s;
 80016e6:	4b16      	ldr	r3, [pc, #88]	@ (8001740 <start_if_possible+0xbc>)
 80016e8:	881b      	ldrh	r3, [r3, #0]
 80016ea:	b29a      	uxth	r2, r3
 80016ec:	4b10      	ldr	r3, [pc, #64]	@ (8001730 <start_if_possible+0xac>)
 80016ee:	801a      	strh	r2, [r3, #0]
    show_time_7seg(time_left_s);
 80016f0:	4b0f      	ldr	r3, [pc, #60]	@ (8001730 <start_if_possible+0xac>)
 80016f2:	881b      	ldrh	r3, [r3, #0]
 80016f4:	b29b      	uxth	r3, r3
 80016f6:	0018      	movs	r0, r3
 80016f8:	f7ff fb66 	bl	8000dc8 <show_time_7seg>
    lcd_clear(); lcd_goto(0,0); lcd_puts("Calentando");
 80016fc:	f7ff fd2e 	bl	800115c <lcd_clear>
 8001700:	2100      	movs	r1, #0
 8001702:	2000      	movs	r0, #0
 8001704:	f7ff fd32 	bl	800116c <lcd_goto>
 8001708:	4b0b      	ldr	r3, [pc, #44]	@ (8001738 <start_if_possible+0xb4>)
 800170a:	0018      	movs	r0, r3
 800170c:	f7ff fd49 	bl	80011a2 <lcd_puts>
    sec_acc_run = 0;
 8001710:	4b08      	ldr	r3, [pc, #32]	@ (8001734 <start_if_possible+0xb0>)
 8001712:	2200      	movs	r2, #0
 8001714:	801a      	strh	r2, [r3, #0]
    fsm_state = ST_RUNNING;
 8001716:	4b05      	ldr	r3, [pc, #20]	@ (800172c <start_if_possible+0xa8>)
 8001718:	2204      	movs	r2, #4
 800171a:	701a      	strb	r2, [r3, #0]
    stepper_start();
 800171c:	f7ff f830 	bl	8000780 <stepper_start>
 8001720:	e000      	b.n	8001724 <start_if_possible+0xa0>
  if(!door_closed) return;
 8001722:	46c0      	nop			@ (mov r8, r8)
  }
}
 8001724:	46bd      	mov	sp, r7
 8001726:	bd80      	pop	{r7, pc}
 8001728:	20000001 	.word	0x20000001
 800172c:	2000009e 	.word	0x2000009e
 8001730:	200000a2 	.word	0x200000a2
 8001734:	200000de 	.word	0x200000de
 8001738:	08002a30 	.word	0x08002a30
 800173c:	2000009c 	.word	0x2000009c
 8001740:	200000a0 	.word	0x200000a0

08001744 <reset_all_to_idle>:

static void reset_all_to_idle(void){
 8001744:	b580      	push	{r7, lr}
 8001746:	af00      	add	r7, sp, #0
  stepper_stop();
 8001748:	f7ff f838 	bl	80007bc <stepper_stop>
  time_left_s=0; time_set_s=0; edit_time_raw=0; edit_temp_raw=0;
 800174c:	4b17      	ldr	r3, [pc, #92]	@ (80017ac <reset_all_to_idle+0x68>)
 800174e:	2200      	movs	r2, #0
 8001750:	801a      	strh	r2, [r3, #0]
 8001752:	4b17      	ldr	r3, [pc, #92]	@ (80017b0 <reset_all_to_idle+0x6c>)
 8001754:	2200      	movs	r2, #0
 8001756:	801a      	strh	r2, [r3, #0]
 8001758:	4b16      	ldr	r3, [pc, #88]	@ (80017b4 <reset_all_to_idle+0x70>)
 800175a:	2200      	movs	r2, #0
 800175c:	801a      	strh	r2, [r3, #0]
 800175e:	4b16      	ldr	r3, [pc, #88]	@ (80017b8 <reset_all_to_idle+0x74>)
 8001760:	2200      	movs	r2, #0
 8001762:	801a      	strh	r2, [r3, #0]
  show_time_7seg(0); preset_idx=0; preset_acc=0;
 8001764:	2000      	movs	r0, #0
 8001766:	f7ff fb2f 	bl	8000dc8 <show_time_7seg>
 800176a:	4b14      	ldr	r3, [pc, #80]	@ (80017bc <reset_all_to_idle+0x78>)
 800176c:	2200      	movs	r2, #0
 800176e:	701a      	strb	r2, [r3, #0]
 8001770:	4b13      	ldr	r3, [pc, #76]	@ (80017c0 <reset_all_to_idle+0x7c>)
 8001772:	2200      	movs	r2, #0
 8001774:	801a      	strh	r2, [r3, #0]
  preset_locked = 0;
 8001776:	4b13      	ldr	r3, [pc, #76]	@ (80017c4 <reset_all_to_idle+0x80>)
 8001778:	2200      	movs	r2, #0
 800177a:	701a      	strb	r2, [r3, #0]
  lcd_clear(); lcd_goto(0,0); lcd_puts("A=tiempo B=temp");
 800177c:	f7ff fcee 	bl	800115c <lcd_clear>
 8001780:	2100      	movs	r1, #0
 8001782:	2000      	movs	r0, #0
 8001784:	f7ff fcf2 	bl	800116c <lcd_goto>
 8001788:	4b0f      	ldr	r3, [pc, #60]	@ (80017c8 <reset_all_to_idle+0x84>)
 800178a:	0018      	movs	r0, r3
 800178c:	f7ff fd09 	bl	80011a2 <lcd_puts>
  lcd_goto(0,1); lcd_puts("Temp: --C");
 8001790:	2101      	movs	r1, #1
 8001792:	2000      	movs	r0, #0
 8001794:	f7ff fcea 	bl	800116c <lcd_goto>
 8001798:	4b0c      	ldr	r3, [pc, #48]	@ (80017cc <reset_all_to_idle+0x88>)
 800179a:	0018      	movs	r0, r3
 800179c:	f7ff fd01 	bl	80011a2 <lcd_puts>
  fsm_state=ST_IDLE;
 80017a0:	4b0b      	ldr	r3, [pc, #44]	@ (80017d0 <reset_all_to_idle+0x8c>)
 80017a2:	2200      	movs	r2, #0
 80017a4:	701a      	strb	r2, [r3, #0]
}
 80017a6:	46c0      	nop			@ (mov r8, r8)
 80017a8:	46bd      	mov	sp, r7
 80017aa:	bd80      	pop	{r7, pc}
 80017ac:	200000a2 	.word	0x200000a2
 80017b0:	200000a0 	.word	0x200000a0
 80017b4:	200000da 	.word	0x200000da
 80017b8:	200000dc 	.word	0x200000dc
 80017bc:	200000c8 	.word	0x200000c8
 80017c0:	200000c6 	.word	0x200000c6
 80017c4:	200000c9 	.word	0x200000c9
 80017c8:	08002a3c 	.word	0x08002a3c
 80017cc:	080029f4 	.word	0x080029f4
 80017d0:	2000009e 	.word	0x2000009e

080017d4 <fsm_tick_5ms>:

static void fsm_tick_5ms(void){
 80017d4:	b5f0      	push	{r4, r5, r6, r7, lr}
 80017d6:	b09d      	sub	sp, #116	@ 0x74
 80017d8:	af00      	add	r7, sp, #0
  uint8_t k;
  while(q_get(&k)){
 80017da:	e2c5      	b.n	8001d68 <fsm_tick_5ms+0x594>
    if(k=='#'){
 80017dc:	2369      	movs	r3, #105	@ 0x69
 80017de:	18fb      	adds	r3, r7, r3
 80017e0:	781b      	ldrb	r3, [r3, #0]
 80017e2:	2b23      	cmp	r3, #35	@ 0x23
 80017e4:	d150      	bne.n	8001888 <fsm_tick_5ms+0xb4>
      /* Doble '#': si hay uno pendiente y la ventana sigue viva, es el segundo */
      if (pending_hash && hash_ms > 0){
 80017e6:	4bc7      	ldr	r3, [pc, #796]	@ (8001b04 <fsm_tick_5ms+0x330>)
 80017e8:	781b      	ldrb	r3, [r3, #0]
 80017ea:	2b00      	cmp	r3, #0
 80017ec:	d02d      	beq.n	800184a <fsm_tick_5ms+0x76>
 80017ee:	4bc6      	ldr	r3, [pc, #792]	@ (8001b08 <fsm_tick_5ms+0x334>)
 80017f0:	881b      	ldrh	r3, [r3, #0]
 80017f2:	2b00      	cmp	r3, #0
 80017f4:	d029      	beq.n	800184a <fsm_tick_5ms+0x76>
        pending_hash = 0;
 80017f6:	4bc3      	ldr	r3, [pc, #780]	@ (8001b04 <fsm_tick_5ms+0x330>)
 80017f8:	2200      	movs	r2, #0
 80017fa:	701a      	strb	r2, [r3, #0]
        hash_ms = 0;
 80017fc:	4bc2      	ldr	r3, [pc, #776]	@ (8001b08 <fsm_tick_5ms+0x334>)
 80017fe:	2200      	movs	r2, #0
 8001800:	801a      	strh	r2, [r3, #0]

        if (fsm_state == ST_RUNNING || fsm_state == ST_PAUSE){
 8001802:	4bc2      	ldr	r3, [pc, #776]	@ (8001b0c <fsm_tick_5ms+0x338>)
 8001804:	781b      	ldrb	r3, [r3, #0]
 8001806:	b2db      	uxtb	r3, r3
 8001808:	2b04      	cmp	r3, #4
 800180a:	d004      	beq.n	8001816 <fsm_tick_5ms+0x42>
 800180c:	4bbf      	ldr	r3, [pc, #764]	@ (8001b0c <fsm_tick_5ms+0x338>)
 800180e:	781b      	ldrb	r3, [r3, #0]
 8001810:	b2db      	uxtb	r3, r3
 8001812:	2b05      	cmp	r3, #5
 8001814:	d10b      	bne.n	800182e <fsm_tick_5ms+0x5a>
          stp_dir = (int8_t)-stp_dir;   /* invertir sentido */
 8001816:	4bbe      	ldr	r3, [pc, #760]	@ (8001b10 <fsm_tick_5ms+0x33c>)
 8001818:	781b      	ldrb	r3, [r3, #0]
 800181a:	b25b      	sxtb	r3, r3
 800181c:	b2db      	uxtb	r3, r3
 800181e:	425b      	negs	r3, r3
 8001820:	b2db      	uxtb	r3, r3
 8001822:	b25a      	sxtb	r2, r3
 8001824:	4bba      	ldr	r3, [pc, #744]	@ (8001b10 <fsm_tick_5ms+0x33c>)
 8001826:	701a      	strb	r2, [r3, #0]
          buzzer_beep1();
 8001828:	f7fe feba 	bl	80005a0 <buzzer_beep1>
        } else {
          /* fuera de RUN/PAUSE: atajo til (p.ej. +10s) */
          time_left_s += 10;
          show_time_7seg(time_left_s);
        }
        continue;
 800182c:	e29c      	b.n	8001d68 <fsm_tick_5ms+0x594>
          time_left_s += 10;
 800182e:	4bb9      	ldr	r3, [pc, #740]	@ (8001b14 <fsm_tick_5ms+0x340>)
 8001830:	881b      	ldrh	r3, [r3, #0]
 8001832:	b29b      	uxth	r3, r3
 8001834:	330a      	adds	r3, #10
 8001836:	b29a      	uxth	r2, r3
 8001838:	4bb6      	ldr	r3, [pc, #728]	@ (8001b14 <fsm_tick_5ms+0x340>)
 800183a:	801a      	strh	r2, [r3, #0]
          show_time_7seg(time_left_s);
 800183c:	4bb5      	ldr	r3, [pc, #724]	@ (8001b14 <fsm_tick_5ms+0x340>)
 800183e:	881b      	ldrh	r3, [r3, #0]
 8001840:	b29b      	uxth	r3, r3
 8001842:	0018      	movs	r0, r3
 8001844:	f7ff fac0 	bl	8000dc8 <show_time_7seg>
        continue;
 8001848:	e28e      	b.n	8001d68 <fsm_tick_5ms+0x594>
      } else {
        /* primer '#' abre ventana */
        pending_hash = 1;
 800184a:	4bae      	ldr	r3, [pc, #696]	@ (8001b04 <fsm_tick_5ms+0x330>)
 800184c:	2201      	movs	r2, #1
 800184e:	701a      	strb	r2, [r3, #0]
        hash_ms = DOUBLE_KEY_WINDOW_MS;
 8001850:	4bad      	ldr	r3, [pc, #692]	@ (8001b08 <fsm_tick_5ms+0x334>)
 8001852:	22e1      	movs	r2, #225	@ 0xe1
 8001854:	0092      	lsls	r2, r2, #2
 8001856:	801a      	strh	r2, [r3, #0]
      }

      /* Un solo '#' (o el primero del doble) intenta iniciar/reanudar */
      if(fsm_state==ST_IDLE || fsm_state==ST_SET_TIME || fsm_state==ST_PRESET || fsm_state==ST_PAUSE){
 8001858:	4bac      	ldr	r3, [pc, #688]	@ (8001b0c <fsm_tick_5ms+0x338>)
 800185a:	781b      	ldrb	r3, [r3, #0]
 800185c:	b2db      	uxtb	r3, r3
 800185e:	2b00      	cmp	r3, #0
 8001860:	d00f      	beq.n	8001882 <fsm_tick_5ms+0xae>
 8001862:	4baa      	ldr	r3, [pc, #680]	@ (8001b0c <fsm_tick_5ms+0x338>)
 8001864:	781b      	ldrb	r3, [r3, #0]
 8001866:	b2db      	uxtb	r3, r3
 8001868:	2b01      	cmp	r3, #1
 800186a:	d00a      	beq.n	8001882 <fsm_tick_5ms+0xae>
 800186c:	4ba7      	ldr	r3, [pc, #668]	@ (8001b0c <fsm_tick_5ms+0x338>)
 800186e:	781b      	ldrb	r3, [r3, #0]
 8001870:	b2db      	uxtb	r3, r3
 8001872:	2b03      	cmp	r3, #3
 8001874:	d005      	beq.n	8001882 <fsm_tick_5ms+0xae>
 8001876:	4ba5      	ldr	r3, [pc, #660]	@ (8001b0c <fsm_tick_5ms+0x338>)
 8001878:	781b      	ldrb	r3, [r3, #0]
 800187a:	b2db      	uxtb	r3, r3
 800187c:	2b05      	cmp	r3, #5
 800187e:	d000      	beq.n	8001882 <fsm_tick_5ms+0xae>
 8001880:	e272      	b.n	8001d68 <fsm_tick_5ms+0x594>
        start_if_possible();
 8001882:	f7ff feff 	bl	8001684 <start_if_possible>
 8001886:	e26f      	b.n	8001d68 <fsm_tick_5ms+0x594>
      }
    }
    else if(k=='*'){
 8001888:	2369      	movs	r3, #105	@ 0x69
 800188a:	18fb      	adds	r3, r7, r3
 800188c:	781b      	ldrb	r3, [r3, #0]
 800188e:	2b2a      	cmp	r3, #42	@ 0x2a
 8001890:	d000      	beq.n	8001894 <fsm_tick_5ms+0xc0>
 8001892:	e0d2      	b.n	8001a3a <fsm_tick_5ms+0x266>
      if(star_window && !last_star){
 8001894:	4ba0      	ldr	r3, [pc, #640]	@ (8001b18 <fsm_tick_5ms+0x344>)
 8001896:	781b      	ldrb	r3, [r3, #0]
 8001898:	2b00      	cmp	r3, #0
 800189a:	d009      	beq.n	80018b0 <fsm_tick_5ms+0xdc>
 800189c:	4b9f      	ldr	r3, [pc, #636]	@ (8001b1c <fsm_tick_5ms+0x348>)
 800189e:	781b      	ldrb	r3, [r3, #0]
 80018a0:	2b00      	cmp	r3, #0
 80018a2:	d105      	bne.n	80018b0 <fsm_tick_5ms+0xdc>
        reset_all_to_idle();
 80018a4:	f7ff ff4e 	bl	8001744 <reset_all_to_idle>
        last_star=1; continue;
 80018a8:	4b9c      	ldr	r3, [pc, #624]	@ (8001b1c <fsm_tick_5ms+0x348>)
 80018aa:	2201      	movs	r2, #1
 80018ac:	701a      	strb	r2, [r3, #0]
 80018ae:	e25b      	b.n	8001d68 <fsm_tick_5ms+0x594>
      }
      last_star=1; star_window=1;
 80018b0:	4b9a      	ldr	r3, [pc, #616]	@ (8001b1c <fsm_tick_5ms+0x348>)
 80018b2:	2201      	movs	r2, #1
 80018b4:	701a      	strb	r2, [r3, #0]
 80018b6:	4b98      	ldr	r3, [pc, #608]	@ (8001b18 <fsm_tick_5ms+0x344>)
 80018b8:	2201      	movs	r2, #1
 80018ba:	701a      	strb	r2, [r3, #0]

      /* Si hay preset anclado, liberarlo con '*' y volver a rotar */
      if (preset_locked){
 80018bc:	4b98      	ldr	r3, [pc, #608]	@ (8001b20 <fsm_tick_5ms+0x34c>)
 80018be:	781b      	ldrb	r3, [r3, #0]
 80018c0:	2b00      	cmp	r3, #0
 80018c2:	d01e      	beq.n	8001902 <fsm_tick_5ms+0x12e>
        preset_locked = 0;
 80018c4:	4b96      	ldr	r3, [pc, #600]	@ (8001b20 <fsm_tick_5ms+0x34c>)
 80018c6:	2200      	movs	r2, #0
 80018c8:	701a      	strb	r2, [r3, #0]
        if (fsm_state == ST_PRESET){
 80018ca:	4b90      	ldr	r3, [pc, #576]	@ (8001b0c <fsm_tick_5ms+0x338>)
 80018cc:	781b      	ldrb	r3, [r3, #0]
 80018ce:	b2db      	uxtb	r3, r3
 80018d0:	2b03      	cmp	r3, #3
 80018d2:	d116      	bne.n	8001902 <fsm_tick_5ms+0x12e>
          lcd_clear();
 80018d4:	f7ff fc42 	bl	800115c <lcd_clear>
          lcd_goto(0,0); lcd_puts("Presets");
 80018d8:	2100      	movs	r1, #0
 80018da:	2000      	movs	r0, #0
 80018dc:	f7ff fc46 	bl	800116c <lcd_goto>
 80018e0:	4b90      	ldr	r3, [pc, #576]	@ (8001b24 <fsm_tick_5ms+0x350>)
 80018e2:	0018      	movs	r0, r3
 80018e4:	f7ff fc5d 	bl	80011a2 <lcd_puts>
          lcd_goto(0,1); lcd_puts(PRESET_NAMES[preset_idx]);
 80018e8:	2101      	movs	r1, #1
 80018ea:	2000      	movs	r0, #0
 80018ec:	f7ff fc3e 	bl	800116c <lcd_goto>
 80018f0:	4b8d      	ldr	r3, [pc, #564]	@ (8001b28 <fsm_tick_5ms+0x354>)
 80018f2:	781b      	ldrb	r3, [r3, #0]
 80018f4:	001a      	movs	r2, r3
 80018f6:	4b8d      	ldr	r3, [pc, #564]	@ (8001b2c <fsm_tick_5ms+0x358>)
 80018f8:	0092      	lsls	r2, r2, #2
 80018fa:	58d3      	ldr	r3, [r2, r3]
 80018fc:	0018      	movs	r0, r3
 80018fe:	f7ff fc50 	bl	80011a2 <lcd_puts>
        }
      }

      if(fsm_state==ST_RUNNING){
 8001902:	4b82      	ldr	r3, [pc, #520]	@ (8001b0c <fsm_tick_5ms+0x338>)
 8001904:	781b      	ldrb	r3, [r3, #0]
 8001906:	b2db      	uxtb	r3, r3
 8001908:	2b04      	cmp	r3, #4
 800190a:	d112      	bne.n	8001932 <fsm_tick_5ms+0x15e>
        fsm_state=ST_PAUSE; lcd_clear(); lcd_goto(0,0); lcd_puts("Pausa");
 800190c:	4b7f      	ldr	r3, [pc, #508]	@ (8001b0c <fsm_tick_5ms+0x338>)
 800190e:	2205      	movs	r2, #5
 8001910:	701a      	strb	r2, [r3, #0]
 8001912:	f7ff fc23 	bl	800115c <lcd_clear>
 8001916:	2100      	movs	r1, #0
 8001918:	2000      	movs	r0, #0
 800191a:	f7ff fc27 	bl	800116c <lcd_goto>
 800191e:	4b84      	ldr	r3, [pc, #528]	@ (8001b30 <fsm_tick_5ms+0x35c>)
 8001920:	0018      	movs	r0, r3
 8001922:	f7ff fc3e 	bl	80011a2 <lcd_puts>
        stepper_stop();
 8001926:	f7fe ff49 	bl	80007bc <stepper_stop>
        door_pause = 0;
 800192a:	4b82      	ldr	r3, [pc, #520]	@ (8001b34 <fsm_tick_5ms+0x360>)
 800192c:	2200      	movs	r2, #0
 800192e:	701a      	strb	r2, [r3, #0]
 8001930:	e21a      	b.n	8001d68 <fsm_tick_5ms+0x594>
      } else if(fsm_state==ST_SET_TIME){
 8001932:	4b76      	ldr	r3, [pc, #472]	@ (8001b0c <fsm_tick_5ms+0x338>)
 8001934:	781b      	ldrb	r3, [r3, #0]
 8001936:	b2db      	uxtb	r3, r3
 8001938:	2b01      	cmp	r3, #1
 800193a:	d13e      	bne.n	80019ba <fsm_tick_5ms+0x1e6>
        edit_time_raw /= 10;
 800193c:	4b7e      	ldr	r3, [pc, #504]	@ (8001b38 <fsm_tick_5ms+0x364>)
 800193e:	881b      	ldrh	r3, [r3, #0]
 8001940:	210a      	movs	r1, #10
 8001942:	0018      	movs	r0, r3
 8001944:	f7fe fbea 	bl	800011c <__udivsi3>
 8001948:	0003      	movs	r3, r0
 800194a:	b29a      	uxth	r2, r3
 800194c:	4b7a      	ldr	r3, [pc, #488]	@ (8001b38 <fsm_tick_5ms+0x364>)
 800194e:	801a      	strh	r2, [r3, #0]
        uint16_t s=raw_to_seconds(edit_time_raw); char t[6]; fmt_mmss(s,t);
 8001950:	4b79      	ldr	r3, [pc, #484]	@ (8001b38 <fsm_tick_5ms+0x364>)
 8001952:	881b      	ldrh	r3, [r3, #0]
 8001954:	256a      	movs	r5, #106	@ 0x6a
 8001956:	197c      	adds	r4, r7, r5
 8001958:	0018      	movs	r0, r3
 800195a:	f7ff fdd8 	bl	800150e <raw_to_seconds>
 800195e:	0003      	movs	r3, r0
 8001960:	8023      	strh	r3, [r4, #0]
 8001962:	2660      	movs	r6, #96	@ 0x60
 8001964:	19ba      	adds	r2, r7, r6
 8001966:	002c      	movs	r4, r5
 8001968:	193b      	adds	r3, r7, r4
 800196a:	881b      	ldrh	r3, [r3, #0]
 800196c:	0011      	movs	r1, r2
 800196e:	0018      	movs	r0, r3
 8001970:	f7ff fd68 	bl	8001444 <fmt_mmss>
        lcd_goto(0,0); lcd_puts("Tiempo        ");
 8001974:	2100      	movs	r1, #0
 8001976:	2000      	movs	r0, #0
 8001978:	f7ff fbf8 	bl	800116c <lcd_goto>
 800197c:	4b6f      	ldr	r3, [pc, #444]	@ (8001b3c <fsm_tick_5ms+0x368>)
 800197e:	0018      	movs	r0, r3
 8001980:	f7ff fc0f 	bl	80011a2 <lcd_puts>
        lcd_goto(0,1); lcd_puts("Valor: "); lcd_puts(t); lcd_puts("  ");
 8001984:	2101      	movs	r1, #1
 8001986:	2000      	movs	r0, #0
 8001988:	f7ff fbf0 	bl	800116c <lcd_goto>
 800198c:	4b6c      	ldr	r3, [pc, #432]	@ (8001b40 <fsm_tick_5ms+0x36c>)
 800198e:	0018      	movs	r0, r3
 8001990:	f7ff fc07 	bl	80011a2 <lcd_puts>
 8001994:	19bb      	adds	r3, r7, r6
 8001996:	0018      	movs	r0, r3
 8001998:	f7ff fc03 	bl	80011a2 <lcd_puts>
 800199c:	4b69      	ldr	r3, [pc, #420]	@ (8001b44 <fsm_tick_5ms+0x370>)
 800199e:	0018      	movs	r0, r3
 80019a0:	f7ff fbff 	bl	80011a2 <lcd_puts>
        time_set_s=s; show_time_7seg(time_set_s);
 80019a4:	4b68      	ldr	r3, [pc, #416]	@ (8001b48 <fsm_tick_5ms+0x374>)
 80019a6:	193a      	adds	r2, r7, r4
 80019a8:	8812      	ldrh	r2, [r2, #0]
 80019aa:	801a      	strh	r2, [r3, #0]
 80019ac:	4b66      	ldr	r3, [pc, #408]	@ (8001b48 <fsm_tick_5ms+0x374>)
 80019ae:	881b      	ldrh	r3, [r3, #0]
 80019b0:	b29b      	uxth	r3, r3
 80019b2:	0018      	movs	r0, r3
 80019b4:	f7ff fa08 	bl	8000dc8 <show_time_7seg>
 80019b8:	e1d6      	b.n	8001d68 <fsm_tick_5ms+0x594>
      } else if(fsm_state==ST_SET_TEMP){
 80019ba:	4b54      	ldr	r3, [pc, #336]	@ (8001b0c <fsm_tick_5ms+0x338>)
 80019bc:	781b      	ldrb	r3, [r3, #0]
 80019be:	b2db      	uxtb	r3, r3
 80019c0:	2b02      	cmp	r3, #2
 80019c2:	d121      	bne.n	8001a08 <fsm_tick_5ms+0x234>
        edit_temp_raw /= 10;
 80019c4:	4b61      	ldr	r3, [pc, #388]	@ (8001b4c <fsm_tick_5ms+0x378>)
 80019c6:	881b      	ldrh	r3, [r3, #0]
 80019c8:	210a      	movs	r1, #10
 80019ca:	0018      	movs	r0, r3
 80019cc:	f7fe fba6 	bl	800011c <__udivsi3>
 80019d0:	0003      	movs	r3, r0
 80019d2:	b29a      	uxth	r2, r3
 80019d4:	4b5d      	ldr	r3, [pc, #372]	@ (8001b4c <fsm_tick_5ms+0x378>)
 80019d6:	801a      	strh	r2, [r3, #0]
        if(edit_temp_raw>100) edit_temp_raw=100;
 80019d8:	4b5c      	ldr	r3, [pc, #368]	@ (8001b4c <fsm_tick_5ms+0x378>)
 80019da:	881b      	ldrh	r3, [r3, #0]
 80019dc:	2b64      	cmp	r3, #100	@ 0x64
 80019de:	d902      	bls.n	80019e6 <fsm_tick_5ms+0x212>
 80019e0:	4b5a      	ldr	r3, [pc, #360]	@ (8001b4c <fsm_tick_5ms+0x378>)
 80019e2:	2264      	movs	r2, #100	@ 0x64
 80019e4:	801a      	strh	r2, [r3, #0]
        char l2[17]; snprintf(l2,sizeof(l2),"Valor: %3uC   ",(unsigned)edit_temp_raw);
 80019e6:	4b59      	ldr	r3, [pc, #356]	@ (8001b4c <fsm_tick_5ms+0x378>)
 80019e8:	881b      	ldrh	r3, [r3, #0]
 80019ea:	4a59      	ldr	r2, [pc, #356]	@ (8001b50 <fsm_tick_5ms+0x37c>)
 80019ec:	244c      	movs	r4, #76	@ 0x4c
 80019ee:	1938      	adds	r0, r7, r4
 80019f0:	2111      	movs	r1, #17
 80019f2:	f000 fb27 	bl	8002044 <sniprintf>
        lcd_goto(0,1); lcd_puts(l2);
 80019f6:	2101      	movs	r1, #1
 80019f8:	2000      	movs	r0, #0
 80019fa:	f7ff fbb7 	bl	800116c <lcd_goto>
 80019fe:	193b      	adds	r3, r7, r4
 8001a00:	0018      	movs	r0, r3
 8001a02:	f7ff fbce 	bl	80011a2 <lcd_puts>
 8001a06:	e1af      	b.n	8001d68 <fsm_tick_5ms+0x594>
      } else {
        lcd_clear();
 8001a08:	f7ff fba8 	bl	800115c <lcd_clear>
        if(have_temp){ lcd_goto(0,1); char l2[17]; snprintf(l2,sizeof(l2),"Temp: %02uC",temp_set); lcd_puts(l2); }
 8001a0c:	4b51      	ldr	r3, [pc, #324]	@ (8001b54 <fsm_tick_5ms+0x380>)
 8001a0e:	781b      	ldrb	r3, [r3, #0]
 8001a10:	2b00      	cmp	r3, #0
 8001a12:	d100      	bne.n	8001a16 <fsm_tick_5ms+0x242>
 8001a14:	e1a8      	b.n	8001d68 <fsm_tick_5ms+0x594>
 8001a16:	2101      	movs	r1, #1
 8001a18:	2000      	movs	r0, #0
 8001a1a:	f7ff fba7 	bl	800116c <lcd_goto>
 8001a1e:	4b4e      	ldr	r3, [pc, #312]	@ (8001b58 <fsm_tick_5ms+0x384>)
 8001a20:	781b      	ldrb	r3, [r3, #0]
 8001a22:	b2db      	uxtb	r3, r3
 8001a24:	4a4d      	ldr	r2, [pc, #308]	@ (8001b5c <fsm_tick_5ms+0x388>)
 8001a26:	2438      	movs	r4, #56	@ 0x38
 8001a28:	1938      	adds	r0, r7, r4
 8001a2a:	2111      	movs	r1, #17
 8001a2c:	f000 fb0a 	bl	8002044 <sniprintf>
 8001a30:	193b      	adds	r3, r7, r4
 8001a32:	0018      	movs	r0, r3
 8001a34:	f7ff fbb5 	bl	80011a2 <lcd_puts>
 8001a38:	e196      	b.n	8001d68 <fsm_tick_5ms+0x594>
      }
    }
    else if(k=='A'){
 8001a3a:	2369      	movs	r3, #105	@ 0x69
 8001a3c:	18fb      	adds	r3, r7, r3
 8001a3e:	781b      	ldrb	r3, [r3, #0]
 8001a40:	2b41      	cmp	r3, #65	@ 0x41
 8001a42:	d118      	bne.n	8001a76 <fsm_tick_5ms+0x2a2>
      fsm_state=ST_SET_TIME; edit_time_raw=0;
 8001a44:	4b31      	ldr	r3, [pc, #196]	@ (8001b0c <fsm_tick_5ms+0x338>)
 8001a46:	2201      	movs	r2, #1
 8001a48:	701a      	strb	r2, [r3, #0]
 8001a4a:	4b3b      	ldr	r3, [pc, #236]	@ (8001b38 <fsm_tick_5ms+0x364>)
 8001a4c:	2200      	movs	r2, #0
 8001a4e:	801a      	strh	r2, [r3, #0]
      lcd_clear(); lcd_goto(0,0); lcd_puts("Tiempo");
 8001a50:	f7ff fb84 	bl	800115c <lcd_clear>
 8001a54:	2100      	movs	r1, #0
 8001a56:	2000      	movs	r0, #0
 8001a58:	f7ff fb88 	bl	800116c <lcd_goto>
 8001a5c:	4b40      	ldr	r3, [pc, #256]	@ (8001b60 <fsm_tick_5ms+0x38c>)
 8001a5e:	0018      	movs	r0, r3
 8001a60:	f7ff fb9f 	bl	80011a2 <lcd_puts>
      lcd_goto(0,1); lcd_puts("Valor: 00:00");
 8001a64:	2101      	movs	r1, #1
 8001a66:	2000      	movs	r0, #0
 8001a68:	f7ff fb80 	bl	800116c <lcd_goto>
 8001a6c:	4b3d      	ldr	r3, [pc, #244]	@ (8001b64 <fsm_tick_5ms+0x390>)
 8001a6e:	0018      	movs	r0, r3
 8001a70:	f7ff fb97 	bl	80011a2 <lcd_puts>
 8001a74:	e178      	b.n	8001d68 <fsm_tick_5ms+0x594>
    }
    else if(k=='B'){
 8001a76:	2369      	movs	r3, #105	@ 0x69
 8001a78:	18fb      	adds	r3, r7, r3
 8001a7a:	781b      	ldrb	r3, [r3, #0]
 8001a7c:	2b42      	cmp	r3, #66	@ 0x42
 8001a7e:	d118      	bne.n	8001ab2 <fsm_tick_5ms+0x2de>
      fsm_state=ST_SET_TEMP; edit_temp_raw=0;
 8001a80:	4b22      	ldr	r3, [pc, #136]	@ (8001b0c <fsm_tick_5ms+0x338>)
 8001a82:	2202      	movs	r2, #2
 8001a84:	701a      	strb	r2, [r3, #0]
 8001a86:	4b31      	ldr	r3, [pc, #196]	@ (8001b4c <fsm_tick_5ms+0x378>)
 8001a88:	2200      	movs	r2, #0
 8001a8a:	801a      	strh	r2, [r3, #0]
      lcd_clear(); lcd_goto(0,0); lcd_puts("Temperatura");
 8001a8c:	f7ff fb66 	bl	800115c <lcd_clear>
 8001a90:	2100      	movs	r1, #0
 8001a92:	2000      	movs	r0, #0
 8001a94:	f7ff fb6a 	bl	800116c <lcd_goto>
 8001a98:	4b33      	ldr	r3, [pc, #204]	@ (8001b68 <fsm_tick_5ms+0x394>)
 8001a9a:	0018      	movs	r0, r3
 8001a9c:	f7ff fb81 	bl	80011a2 <lcd_puts>
      lcd_goto(0,1); lcd_puts("Valor:   0C");
 8001aa0:	2101      	movs	r1, #1
 8001aa2:	2000      	movs	r0, #0
 8001aa4:	f7ff fb62 	bl	800116c <lcd_goto>
 8001aa8:	4b30      	ldr	r3, [pc, #192]	@ (8001b6c <fsm_tick_5ms+0x398>)
 8001aaa:	0018      	movs	r0, r3
 8001aac:	f7ff fb79 	bl	80011a2 <lcd_puts>
 8001ab0:	e15a      	b.n	8001d68 <fsm_tick_5ms+0x594>
    }
    else if(k=='C'){
 8001ab2:	2369      	movs	r3, #105	@ 0x69
 8001ab4:	18fb      	adds	r3, r7, r3
 8001ab6:	781b      	ldrb	r3, [r3, #0]
 8001ab8:	2b43      	cmp	r3, #67	@ 0x43
 8001aba:	d15b      	bne.n	8001b74 <fsm_tick_5ms+0x3a0>
      fsm_state=ST_PRESET; preset_idx=0; preset_acc=0;
 8001abc:	4b13      	ldr	r3, [pc, #76]	@ (8001b0c <fsm_tick_5ms+0x338>)
 8001abe:	2203      	movs	r2, #3
 8001ac0:	701a      	strb	r2, [r3, #0]
 8001ac2:	4b19      	ldr	r3, [pc, #100]	@ (8001b28 <fsm_tick_5ms+0x354>)
 8001ac4:	2200      	movs	r2, #0
 8001ac6:	701a      	strb	r2, [r3, #0]
 8001ac8:	4b29      	ldr	r3, [pc, #164]	@ (8001b70 <fsm_tick_5ms+0x39c>)
 8001aca:	2200      	movs	r2, #0
 8001acc:	801a      	strh	r2, [r3, #0]
      preset_locked = 0;   /* limpiar anclaje previo al entrar */
 8001ace:	4b14      	ldr	r3, [pc, #80]	@ (8001b20 <fsm_tick_5ms+0x34c>)
 8001ad0:	2200      	movs	r2, #0
 8001ad2:	701a      	strb	r2, [r3, #0]
      lcd_clear(); lcd_goto(0,0); lcd_puts("Presets");
 8001ad4:	f7ff fb42 	bl	800115c <lcd_clear>
 8001ad8:	2100      	movs	r1, #0
 8001ada:	2000      	movs	r0, #0
 8001adc:	f7ff fb46 	bl	800116c <lcd_goto>
 8001ae0:	4b10      	ldr	r3, [pc, #64]	@ (8001b24 <fsm_tick_5ms+0x350>)
 8001ae2:	0018      	movs	r0, r3
 8001ae4:	f7ff fb5d 	bl	80011a2 <lcd_puts>
      lcd_goto(0,1); lcd_puts(PRESET_NAMES[preset_idx]);
 8001ae8:	2101      	movs	r1, #1
 8001aea:	2000      	movs	r0, #0
 8001aec:	f7ff fb3e 	bl	800116c <lcd_goto>
 8001af0:	4b0d      	ldr	r3, [pc, #52]	@ (8001b28 <fsm_tick_5ms+0x354>)
 8001af2:	781b      	ldrb	r3, [r3, #0]
 8001af4:	001a      	movs	r2, r3
 8001af6:	4b0d      	ldr	r3, [pc, #52]	@ (8001b2c <fsm_tick_5ms+0x358>)
 8001af8:	0092      	lsls	r2, r2, #2
 8001afa:	58d3      	ldr	r3, [r2, r3]
 8001afc:	0018      	movs	r0, r3
 8001afe:	f7ff fb50 	bl	80011a2 <lcd_puts>
 8001b02:	e131      	b.n	8001d68 <fsm_tick_5ms+0x594>
 8001b04:	200000cc 	.word	0x200000cc
 8001b08:	200000ce 	.word	0x200000ce
 8001b0c:	2000009e 	.word	0x2000009e
 8001b10:	20000000 	.word	0x20000000
 8001b14:	200000a2 	.word	0x200000a2
 8001b18:	200000cb 	.word	0x200000cb
 8001b1c:	200000ca 	.word	0x200000ca
 8001b20:	200000c9 	.word	0x200000c9
 8001b24:	08002a28 	.word	0x08002a28
 8001b28:	200000c8 	.word	0x200000c8
 8001b2c:	20000004 	.word	0x20000004
 8001b30:	08002a4c 	.word	0x08002a4c
 8001b34:	2000009c 	.word	0x2000009c
 8001b38:	200000da 	.word	0x200000da
 8001b3c:	08002a54 	.word	0x08002a54
 8001b40:	08002a64 	.word	0x08002a64
 8001b44:	08002a6c 	.word	0x08002a6c
 8001b48:	200000a0 	.word	0x200000a0
 8001b4c:	200000dc 	.word	0x200000dc
 8001b50:	08002a70 	.word	0x08002a70
 8001b54:	200000a5 	.word	0x200000a5
 8001b58:	200000a4 	.word	0x200000a4
 8001b5c:	08002a0c 	.word	0x08002a0c
 8001b60:	08002a80 	.word	0x08002a80
 8001b64:	08002a88 	.word	0x08002a88
 8001b68:	08002a98 	.word	0x08002a98
 8001b6c:	08002aa4 	.word	0x08002aa4
 8001b70:	200000c6 	.word	0x200000c6
    }
    else if(k>='0' && k<='9'){
 8001b74:	2169      	movs	r1, #105	@ 0x69
 8001b76:	187b      	adds	r3, r7, r1
 8001b78:	781b      	ldrb	r3, [r3, #0]
 8001b7a:	2b2f      	cmp	r3, #47	@ 0x2f
 8001b7c:	d800      	bhi.n	8001b80 <fsm_tick_5ms+0x3ac>
 8001b7e:	e0bf      	b.n	8001d00 <fsm_tick_5ms+0x52c>
 8001b80:	187b      	adds	r3, r7, r1
 8001b82:	781b      	ldrb	r3, [r3, #0]
 8001b84:	2b39      	cmp	r3, #57	@ 0x39
 8001b86:	d900      	bls.n	8001b8a <fsm_tick_5ms+0x3b6>
 8001b88:	e0ba      	b.n	8001d00 <fsm_tick_5ms+0x52c>
      if(fsm_state==ST_SET_TIME){
 8001b8a:	4bd3      	ldr	r3, [pc, #844]	@ (8001ed8 <fsm_tick_5ms+0x704>)
 8001b8c:	781b      	ldrb	r3, [r3, #0]
 8001b8e:	b2db      	uxtb	r3, r3
 8001b90:	2b01      	cmp	r3, #1
 8001b92:	d149      	bne.n	8001c28 <fsm_tick_5ms+0x454>
        if(edit_time_raw<1000) edit_time_raw=edit_time_raw*10+(k-'0');
 8001b94:	4bd1      	ldr	r3, [pc, #836]	@ (8001edc <fsm_tick_5ms+0x708>)
 8001b96:	881a      	ldrh	r2, [r3, #0]
 8001b98:	23fa      	movs	r3, #250	@ 0xfa
 8001b9a:	009b      	lsls	r3, r3, #2
 8001b9c:	429a      	cmp	r2, r3
 8001b9e:	d20e      	bcs.n	8001bbe <fsm_tick_5ms+0x3ea>
 8001ba0:	4bce      	ldr	r3, [pc, #824]	@ (8001edc <fsm_tick_5ms+0x708>)
 8001ba2:	881b      	ldrh	r3, [r3, #0]
 8001ba4:	1c1a      	adds	r2, r3, #0
 8001ba6:	0092      	lsls	r2, r2, #2
 8001ba8:	18d3      	adds	r3, r2, r3
 8001baa:	18db      	adds	r3, r3, r3
 8001bac:	b29b      	uxth	r3, r3
 8001bae:	187a      	adds	r2, r7, r1
 8001bb0:	7812      	ldrb	r2, [r2, #0]
 8001bb2:	189b      	adds	r3, r3, r2
 8001bb4:	b29b      	uxth	r3, r3
 8001bb6:	3b30      	subs	r3, #48	@ 0x30
 8001bb8:	b29a      	uxth	r2, r3
 8001bba:	4bc8      	ldr	r3, [pc, #800]	@ (8001edc <fsm_tick_5ms+0x708>)
 8001bbc:	801a      	strh	r2, [r3, #0]
        uint16_t s=raw_to_seconds(edit_time_raw); char t[6]; fmt_mmss(s,t);
 8001bbe:	4bc7      	ldr	r3, [pc, #796]	@ (8001edc <fsm_tick_5ms+0x708>)
 8001bc0:	881b      	ldrh	r3, [r3, #0]
 8001bc2:	256c      	movs	r5, #108	@ 0x6c
 8001bc4:	197c      	adds	r4, r7, r5
 8001bc6:	0018      	movs	r0, r3
 8001bc8:	f7ff fca1 	bl	800150e <raw_to_seconds>
 8001bcc:	0003      	movs	r3, r0
 8001bce:	8023      	strh	r3, [r4, #0]
 8001bd0:	2630      	movs	r6, #48	@ 0x30
 8001bd2:	19ba      	adds	r2, r7, r6
 8001bd4:	002c      	movs	r4, r5
 8001bd6:	193b      	adds	r3, r7, r4
 8001bd8:	881b      	ldrh	r3, [r3, #0]
 8001bda:	0011      	movs	r1, r2
 8001bdc:	0018      	movs	r0, r3
 8001bde:	f7ff fc31 	bl	8001444 <fmt_mmss>
        lcd_goto(0,0); lcd_puts("Tiempo        ");
 8001be2:	2100      	movs	r1, #0
 8001be4:	2000      	movs	r0, #0
 8001be6:	f7ff fac1 	bl	800116c <lcd_goto>
 8001bea:	4bbd      	ldr	r3, [pc, #756]	@ (8001ee0 <fsm_tick_5ms+0x70c>)
 8001bec:	0018      	movs	r0, r3
 8001bee:	f7ff fad8 	bl	80011a2 <lcd_puts>
        lcd_goto(0,1); lcd_puts("Valor: "); lcd_puts(t); lcd_puts("  ");
 8001bf2:	2101      	movs	r1, #1
 8001bf4:	2000      	movs	r0, #0
 8001bf6:	f7ff fab9 	bl	800116c <lcd_goto>
 8001bfa:	4bba      	ldr	r3, [pc, #744]	@ (8001ee4 <fsm_tick_5ms+0x710>)
 8001bfc:	0018      	movs	r0, r3
 8001bfe:	f7ff fad0 	bl	80011a2 <lcd_puts>
 8001c02:	19bb      	adds	r3, r7, r6
 8001c04:	0018      	movs	r0, r3
 8001c06:	f7ff facc 	bl	80011a2 <lcd_puts>
 8001c0a:	4bb7      	ldr	r3, [pc, #732]	@ (8001ee8 <fsm_tick_5ms+0x714>)
 8001c0c:	0018      	movs	r0, r3
 8001c0e:	f7ff fac8 	bl	80011a2 <lcd_puts>
        time_set_s=s; show_time_7seg(time_set_s);
 8001c12:	4bb6      	ldr	r3, [pc, #728]	@ (8001eec <fsm_tick_5ms+0x718>)
 8001c14:	193a      	adds	r2, r7, r4
 8001c16:	8812      	ldrh	r2, [r2, #0]
 8001c18:	801a      	strh	r2, [r3, #0]
 8001c1a:	4bb4      	ldr	r3, [pc, #720]	@ (8001eec <fsm_tick_5ms+0x718>)
 8001c1c:	881b      	ldrh	r3, [r3, #0]
 8001c1e:	b29b      	uxth	r3, r3
 8001c20:	0018      	movs	r0, r3
 8001c22:	f7ff f8d1 	bl	8000dc8 <show_time_7seg>
      if(fsm_state==ST_SET_TIME){
 8001c26:	e09e      	b.n	8001d66 <fsm_tick_5ms+0x592>
      } else if(fsm_state==ST_SET_TEMP){
 8001c28:	4bab      	ldr	r3, [pc, #684]	@ (8001ed8 <fsm_tick_5ms+0x704>)
 8001c2a:	781b      	ldrb	r3, [r3, #0]
 8001c2c:	b2db      	uxtb	r3, r3
 8001c2e:	2b02      	cmp	r3, #2
 8001c30:	d12b      	bne.n	8001c8a <fsm_tick_5ms+0x4b6>
        if(edit_temp_raw<100) edit_temp_raw = edit_temp_raw*10 + (k-'0');
 8001c32:	4baf      	ldr	r3, [pc, #700]	@ (8001ef0 <fsm_tick_5ms+0x71c>)
 8001c34:	881b      	ldrh	r3, [r3, #0]
 8001c36:	2b63      	cmp	r3, #99	@ 0x63
 8001c38:	d80f      	bhi.n	8001c5a <fsm_tick_5ms+0x486>
 8001c3a:	4bad      	ldr	r3, [pc, #692]	@ (8001ef0 <fsm_tick_5ms+0x71c>)
 8001c3c:	881b      	ldrh	r3, [r3, #0]
 8001c3e:	1c1a      	adds	r2, r3, #0
 8001c40:	0092      	lsls	r2, r2, #2
 8001c42:	18d3      	adds	r3, r2, r3
 8001c44:	18db      	adds	r3, r3, r3
 8001c46:	b29b      	uxth	r3, r3
 8001c48:	2269      	movs	r2, #105	@ 0x69
 8001c4a:	18ba      	adds	r2, r7, r2
 8001c4c:	7812      	ldrb	r2, [r2, #0]
 8001c4e:	189b      	adds	r3, r3, r2
 8001c50:	b29b      	uxth	r3, r3
 8001c52:	3b30      	subs	r3, #48	@ 0x30
 8001c54:	b29a      	uxth	r2, r3
 8001c56:	4ba6      	ldr	r3, [pc, #664]	@ (8001ef0 <fsm_tick_5ms+0x71c>)
 8001c58:	801a      	strh	r2, [r3, #0]
        if(edit_temp_raw>100) edit_temp_raw=100;
 8001c5a:	4ba5      	ldr	r3, [pc, #660]	@ (8001ef0 <fsm_tick_5ms+0x71c>)
 8001c5c:	881b      	ldrh	r3, [r3, #0]
 8001c5e:	2b64      	cmp	r3, #100	@ 0x64
 8001c60:	d902      	bls.n	8001c68 <fsm_tick_5ms+0x494>
 8001c62:	4ba3      	ldr	r3, [pc, #652]	@ (8001ef0 <fsm_tick_5ms+0x71c>)
 8001c64:	2264      	movs	r2, #100	@ 0x64
 8001c66:	801a      	strh	r2, [r3, #0]
        char l2[17]; snprintf(l2,sizeof(l2),"Valor: %3uC   ",(unsigned)edit_temp_raw);
 8001c68:	4ba1      	ldr	r3, [pc, #644]	@ (8001ef0 <fsm_tick_5ms+0x71c>)
 8001c6a:	881b      	ldrh	r3, [r3, #0]
 8001c6c:	4aa1      	ldr	r2, [pc, #644]	@ (8001ef4 <fsm_tick_5ms+0x720>)
 8001c6e:	241c      	movs	r4, #28
 8001c70:	1938      	adds	r0, r7, r4
 8001c72:	2111      	movs	r1, #17
 8001c74:	f000 f9e6 	bl	8002044 <sniprintf>
        lcd_goto(0,1); lcd_puts(l2);
 8001c78:	2101      	movs	r1, #1
 8001c7a:	2000      	movs	r0, #0
 8001c7c:	f7ff fa76 	bl	800116c <lcd_goto>
 8001c80:	193b      	adds	r3, r7, r4
 8001c82:	0018      	movs	r0, r3
 8001c84:	f7ff fa8d 	bl	80011a2 <lcd_puts>
      if(fsm_state==ST_SET_TIME){
 8001c88:	e06d      	b.n	8001d66 <fsm_tick_5ms+0x592>
      } else if(fsm_state==ST_PRESET){
 8001c8a:	4b93      	ldr	r3, [pc, #588]	@ (8001ed8 <fsm_tick_5ms+0x704>)
 8001c8c:	781b      	ldrb	r3, [r3, #0]
 8001c8e:	b2db      	uxtb	r3, r3
 8001c90:	2b03      	cmp	r3, #3
 8001c92:	d168      	bne.n	8001d66 <fsm_tick_5ms+0x592>
        if(k>='1' && k<='4'){
 8001c94:	2269      	movs	r2, #105	@ 0x69
 8001c96:	18bb      	adds	r3, r7, r2
 8001c98:	781b      	ldrb	r3, [r3, #0]
 8001c9a:	2b30      	cmp	r3, #48	@ 0x30
 8001c9c:	d963      	bls.n	8001d66 <fsm_tick_5ms+0x592>
 8001c9e:	18bb      	adds	r3, r7, r2
 8001ca0:	781b      	ldrb	r3, [r3, #0]
 8001ca2:	2b34      	cmp	r3, #52	@ 0x34
 8001ca4:	d85f      	bhi.n	8001d66 <fsm_tick_5ms+0x592>
          uint8_t idx=(uint8_t)(k-'1');
 8001ca6:	18bb      	adds	r3, r7, r2
 8001ca8:	781a      	ldrb	r2, [r3, #0]
 8001caa:	246f      	movs	r4, #111	@ 0x6f
 8001cac:	193b      	adds	r3, r7, r4
 8001cae:	3a31      	subs	r2, #49	@ 0x31
 8001cb0:	701a      	strb	r2, [r3, #0]
          time_set_s=PRESET_TIMES[idx];
 8001cb2:	193b      	adds	r3, r7, r4
 8001cb4:	781a      	ldrb	r2, [r3, #0]
 8001cb6:	4b90      	ldr	r3, [pc, #576]	@ (8001ef8 <fsm_tick_5ms+0x724>)
 8001cb8:	0052      	lsls	r2, r2, #1
 8001cba:	5ad2      	ldrh	r2, [r2, r3]
 8001cbc:	4b8b      	ldr	r3, [pc, #556]	@ (8001eec <fsm_tick_5ms+0x718>)
 8001cbe:	801a      	strh	r2, [r3, #0]
          show_time_7seg(time_set_s);
 8001cc0:	4b8a      	ldr	r3, [pc, #552]	@ (8001eec <fsm_tick_5ms+0x718>)
 8001cc2:	881b      	ldrh	r3, [r3, #0]
 8001cc4:	b29b      	uxth	r3, r3
 8001cc6:	0018      	movs	r0, r3
 8001cc8:	f7ff f87e 	bl	8000dc8 <show_time_7seg>

          preset_locked = 1;      /* anclar hasta '*' */
 8001ccc:	4b8b      	ldr	r3, [pc, #556]	@ (8001efc <fsm_tick_5ms+0x728>)
 8001cce:	2201      	movs	r2, #1
 8001cd0:	701a      	strb	r2, [r3, #0]
          lcd_clear();
 8001cd2:	f7ff fa43 	bl	800115c <lcd_clear>
          lcd_goto(0,0); lcd_puts("Seleccionado");
 8001cd6:	2100      	movs	r1, #0
 8001cd8:	2000      	movs	r0, #0
 8001cda:	f7ff fa47 	bl	800116c <lcd_goto>
 8001cde:	4b88      	ldr	r3, [pc, #544]	@ (8001f00 <fsm_tick_5ms+0x72c>)
 8001ce0:	0018      	movs	r0, r3
 8001ce2:	f7ff fa5e 	bl	80011a2 <lcd_puts>
          lcd_goto(0,1); lcd_puts(PRESET_NAMES[idx]);
 8001ce6:	2101      	movs	r1, #1
 8001ce8:	2000      	movs	r0, #0
 8001cea:	f7ff fa3f 	bl	800116c <lcd_goto>
 8001cee:	193b      	adds	r3, r7, r4
 8001cf0:	781a      	ldrb	r2, [r3, #0]
 8001cf2:	4b84      	ldr	r3, [pc, #528]	@ (8001f04 <fsm_tick_5ms+0x730>)
 8001cf4:	0092      	lsls	r2, r2, #2
 8001cf6:	58d3      	ldr	r3, [r2, r3]
 8001cf8:	0018      	movs	r0, r3
 8001cfa:	f7ff fa52 	bl	80011a2 <lcd_puts>
      if(fsm_state==ST_SET_TIME){
 8001cfe:	e032      	b.n	8001d66 <fsm_tick_5ms+0x592>
        }
      }
    }
    else if(k=='D' && fsm_state==ST_SET_TEMP){
 8001d00:	2369      	movs	r3, #105	@ 0x69
 8001d02:	18fb      	adds	r3, r7, r3
 8001d04:	781b      	ldrb	r3, [r3, #0]
 8001d06:	2b44      	cmp	r3, #68	@ 0x44
 8001d08:	d12e      	bne.n	8001d68 <fsm_tick_5ms+0x594>
 8001d0a:	4b73      	ldr	r3, [pc, #460]	@ (8001ed8 <fsm_tick_5ms+0x704>)
 8001d0c:	781b      	ldrb	r3, [r3, #0]
 8001d0e:	b2db      	uxtb	r3, r3
 8001d10:	2b02      	cmp	r3, #2
 8001d12:	d129      	bne.n	8001d68 <fsm_tick_5ms+0x594>
      temp_set=(uint8_t)edit_temp_raw; have_temp=1; leds_update();
 8001d14:	4b76      	ldr	r3, [pc, #472]	@ (8001ef0 <fsm_tick_5ms+0x71c>)
 8001d16:	881b      	ldrh	r3, [r3, #0]
 8001d18:	b2da      	uxtb	r2, r3
 8001d1a:	4b7b      	ldr	r3, [pc, #492]	@ (8001f08 <fsm_tick_5ms+0x734>)
 8001d1c:	701a      	strb	r2, [r3, #0]
 8001d1e:	4b7b      	ldr	r3, [pc, #492]	@ (8001f0c <fsm_tick_5ms+0x738>)
 8001d20:	2201      	movs	r2, #1
 8001d22:	701a      	strb	r2, [r3, #0]
 8001d24:	f7ff fb5a 	bl	80013dc <leds_update>
      lcd_clear(); lcd_goto(0,0); lcd_puts("Temp guardada");
 8001d28:	f7ff fa18 	bl	800115c <lcd_clear>
 8001d2c:	2100      	movs	r1, #0
 8001d2e:	2000      	movs	r0, #0
 8001d30:	f7ff fa1c 	bl	800116c <lcd_goto>
 8001d34:	4b76      	ldr	r3, [pc, #472]	@ (8001f10 <fsm_tick_5ms+0x73c>)
 8001d36:	0018      	movs	r0, r3
 8001d38:	f7ff fa33 	bl	80011a2 <lcd_puts>
      char l2[17]; snprintf(l2,sizeof(l2),"Temp: %02uC",temp_set); lcd_goto(0,1); lcd_puts(l2);
 8001d3c:	4b72      	ldr	r3, [pc, #456]	@ (8001f08 <fsm_tick_5ms+0x734>)
 8001d3e:	781b      	ldrb	r3, [r3, #0]
 8001d40:	b2db      	uxtb	r3, r3
 8001d42:	4a74      	ldr	r2, [pc, #464]	@ (8001f14 <fsm_tick_5ms+0x740>)
 8001d44:	2408      	movs	r4, #8
 8001d46:	1938      	adds	r0, r7, r4
 8001d48:	2111      	movs	r1, #17
 8001d4a:	f000 f97b 	bl	8002044 <sniprintf>
 8001d4e:	2101      	movs	r1, #1
 8001d50:	2000      	movs	r0, #0
 8001d52:	f7ff fa0b 	bl	800116c <lcd_goto>
 8001d56:	193b      	adds	r3, r7, r4
 8001d58:	0018      	movs	r0, r3
 8001d5a:	f7ff fa22 	bl	80011a2 <lcd_puts>
      fsm_state=ST_IDLE;
 8001d5e:	4b5e      	ldr	r3, [pc, #376]	@ (8001ed8 <fsm_tick_5ms+0x704>)
 8001d60:	2200      	movs	r2, #0
 8001d62:	701a      	strb	r2, [r3, #0]
 8001d64:	e000      	b.n	8001d68 <fsm_tick_5ms+0x594>
      if(fsm_state==ST_SET_TIME){
 8001d66:	46c0      	nop			@ (mov r8, r8)
  while(q_get(&k)){
 8001d68:	2369      	movs	r3, #105	@ 0x69
 8001d6a:	18fb      	adds	r3, r7, r3
 8001d6c:	0018      	movs	r0, r3
 8001d6e:	f7fe fbb9 	bl	80004e4 <q_get>
 8001d72:	1e03      	subs	r3, r0, #0
 8001d74:	d000      	beq.n	8001d78 <fsm_tick_5ms+0x5a4>
 8001d76:	e531      	b.n	80017dc <fsm_tick_5ms+0x8>
    }
  }

  /* Ventana de doble '*' como la tenas */
  if(star_window){ static uint16_t t=0; t+=5; if(t>=DOUBLE_KEY_WINDOW_MS){ t=0; star_window=0; last_star=0; } }
 8001d78:	4b67      	ldr	r3, [pc, #412]	@ (8001f18 <fsm_tick_5ms+0x744>)
 8001d7a:	781b      	ldrb	r3, [r3, #0]
 8001d7c:	2b00      	cmp	r3, #0
 8001d7e:	d014      	beq.n	8001daa <fsm_tick_5ms+0x5d6>
 8001d80:	4b66      	ldr	r3, [pc, #408]	@ (8001f1c <fsm_tick_5ms+0x748>)
 8001d82:	881b      	ldrh	r3, [r3, #0]
 8001d84:	3305      	adds	r3, #5
 8001d86:	b29a      	uxth	r2, r3
 8001d88:	4b64      	ldr	r3, [pc, #400]	@ (8001f1c <fsm_tick_5ms+0x748>)
 8001d8a:	801a      	strh	r2, [r3, #0]
 8001d8c:	4b63      	ldr	r3, [pc, #396]	@ (8001f1c <fsm_tick_5ms+0x748>)
 8001d8e:	881a      	ldrh	r2, [r3, #0]
 8001d90:	23e1      	movs	r3, #225	@ 0xe1
 8001d92:	009b      	lsls	r3, r3, #2
 8001d94:	429a      	cmp	r2, r3
 8001d96:	d308      	bcc.n	8001daa <fsm_tick_5ms+0x5d6>
 8001d98:	4b60      	ldr	r3, [pc, #384]	@ (8001f1c <fsm_tick_5ms+0x748>)
 8001d9a:	2200      	movs	r2, #0
 8001d9c:	801a      	strh	r2, [r3, #0]
 8001d9e:	4b5e      	ldr	r3, [pc, #376]	@ (8001f18 <fsm_tick_5ms+0x744>)
 8001da0:	2200      	movs	r2, #0
 8001da2:	701a      	strb	r2, [r3, #0]
 8001da4:	4b5e      	ldr	r3, [pc, #376]	@ (8001f20 <fsm_tick_5ms+0x74c>)
 8001da6:	2200      	movs	r2, #0
 8001da8:	701a      	strb	r2, [r3, #0]

  /* Ventana de doble '#' en ms (tick de 5 ms) */
  if (pending_hash){
 8001daa:	4b5e      	ldr	r3, [pc, #376]	@ (8001f24 <fsm_tick_5ms+0x750>)
 8001dac:	781b      	ldrb	r3, [r3, #0]
 8001dae:	2b00      	cmp	r3, #0
 8001db0:	d010      	beq.n	8001dd4 <fsm_tick_5ms+0x600>
    if (hash_ms >= 5) hash_ms -= 5;
 8001db2:	4b5d      	ldr	r3, [pc, #372]	@ (8001f28 <fsm_tick_5ms+0x754>)
 8001db4:	881b      	ldrh	r3, [r3, #0]
 8001db6:	2b04      	cmp	r3, #4
 8001db8:	d906      	bls.n	8001dc8 <fsm_tick_5ms+0x5f4>
 8001dba:	4b5b      	ldr	r3, [pc, #364]	@ (8001f28 <fsm_tick_5ms+0x754>)
 8001dbc:	881b      	ldrh	r3, [r3, #0]
 8001dbe:	3b05      	subs	r3, #5
 8001dc0:	b29a      	uxth	r2, r3
 8001dc2:	4b59      	ldr	r3, [pc, #356]	@ (8001f28 <fsm_tick_5ms+0x754>)
 8001dc4:	801a      	strh	r2, [r3, #0]
 8001dc6:	e005      	b.n	8001dd4 <fsm_tick_5ms+0x600>
    else { pending_hash = 0; hash_ms = 0; }
 8001dc8:	4b56      	ldr	r3, [pc, #344]	@ (8001f24 <fsm_tick_5ms+0x750>)
 8001dca:	2200      	movs	r2, #0
 8001dcc:	701a      	strb	r2, [r3, #0]
 8001dce:	4b56      	ldr	r3, [pc, #344]	@ (8001f28 <fsm_tick_5ms+0x754>)
 8001dd0:	2200      	movs	r2, #0
 8001dd2:	801a      	strh	r2, [r3, #0]
  }

  /* ===== Lgica de puerta con beep ===== */
  static uint8_t last_door = 1;
  if(door_closed != last_door){
 8001dd4:	4b55      	ldr	r3, [pc, #340]	@ (8001f2c <fsm_tick_5ms+0x758>)
 8001dd6:	781a      	ldrb	r2, [r3, #0]
 8001dd8:	4b55      	ldr	r3, [pc, #340]	@ (8001f30 <fsm_tick_5ms+0x75c>)
 8001dda:	781b      	ldrb	r3, [r3, #0]
 8001ddc:	429a      	cmp	r2, r3
 8001dde:	d031      	beq.n	8001e44 <fsm_tick_5ms+0x670>
    if(!door_closed){
 8001de0:	4b52      	ldr	r3, [pc, #328]	@ (8001f2c <fsm_tick_5ms+0x758>)
 8001de2:	781b      	ldrb	r3, [r3, #0]
 8001de4:	2b00      	cmp	r3, #0
 8001de6:	d119      	bne.n	8001e1c <fsm_tick_5ms+0x648>
      if(fsm_state == ST_RUNNING){
 8001de8:	4b3b      	ldr	r3, [pc, #236]	@ (8001ed8 <fsm_tick_5ms+0x704>)
 8001dea:	781b      	ldrb	r3, [r3, #0]
 8001dec:	b2db      	uxtb	r3, r3
 8001dee:	2b04      	cmp	r3, #4
 8001df0:	d111      	bne.n	8001e16 <fsm_tick_5ms+0x642>
        fsm_state = ST_PAUSE;
 8001df2:	4b39      	ldr	r3, [pc, #228]	@ (8001ed8 <fsm_tick_5ms+0x704>)
 8001df4:	2205      	movs	r2, #5
 8001df6:	701a      	strb	r2, [r3, #0]
        lcd_clear(); lcd_goto(0,0); lcd_puts("Puerta abierta");
 8001df8:	f7ff f9b0 	bl	800115c <lcd_clear>
 8001dfc:	2100      	movs	r1, #0
 8001dfe:	2000      	movs	r0, #0
 8001e00:	f7ff f9b4 	bl	800116c <lcd_goto>
 8001e04:	4b4b      	ldr	r3, [pc, #300]	@ (8001f34 <fsm_tick_5ms+0x760>)
 8001e06:	0018      	movs	r0, r3
 8001e08:	f7ff f9cb 	bl	80011a2 <lcd_puts>
        stepper_stop();
 8001e0c:	f7fe fcd6 	bl	80007bc <stepper_stop>
        door_pause = 1;
 8001e10:	4b49      	ldr	r3, [pc, #292]	@ (8001f38 <fsm_tick_5ms+0x764>)
 8001e12:	2201      	movs	r2, #1
 8001e14:	701a      	strb	r2, [r3, #0]
      }
      buzzer_beep1();
 8001e16:	f7fe fbc3 	bl	80005a0 <buzzer_beep1>
 8001e1a:	e00f      	b.n	8001e3c <fsm_tick_5ms+0x668>
    } else {
      if(door_pause && time_left_s > 0){
 8001e1c:	4b46      	ldr	r3, [pc, #280]	@ (8001f38 <fsm_tick_5ms+0x764>)
 8001e1e:	781b      	ldrb	r3, [r3, #0]
 8001e20:	2b00      	cmp	r3, #0
 8001e22:	d009      	beq.n	8001e38 <fsm_tick_5ms+0x664>
 8001e24:	4b45      	ldr	r3, [pc, #276]	@ (8001f3c <fsm_tick_5ms+0x768>)
 8001e26:	881b      	ldrh	r3, [r3, #0]
 8001e28:	b29b      	uxth	r3, r3
 8001e2a:	2b00      	cmp	r3, #0
 8001e2c:	d004      	beq.n	8001e38 <fsm_tick_5ms+0x664>
        start_if_possible();
 8001e2e:	f7ff fc29 	bl	8001684 <start_if_possible>
        door_pause = 0;
 8001e32:	4b41      	ldr	r3, [pc, #260]	@ (8001f38 <fsm_tick_5ms+0x764>)
 8001e34:	2200      	movs	r2, #0
 8001e36:	701a      	strb	r2, [r3, #0]
      }
      buzzer_beep1();
 8001e38:	f7fe fbb2 	bl	80005a0 <buzzer_beep1>
    }
    last_door = door_closed;
 8001e3c:	4b3b      	ldr	r3, [pc, #236]	@ (8001f2c <fsm_tick_5ms+0x758>)
 8001e3e:	781a      	ldrb	r2, [r3, #0]
 8001e40:	4b3b      	ldr	r3, [pc, #236]	@ (8001f30 <fsm_tick_5ms+0x75c>)
 8001e42:	701a      	strb	r2, [r3, #0]
  }

  /* Conteo cuando corre */
  if(fsm_state==ST_RUNNING){
 8001e44:	4b24      	ldr	r3, [pc, #144]	@ (8001ed8 <fsm_tick_5ms+0x704>)
 8001e46:	781b      	ldrb	r3, [r3, #0]
 8001e48:	b2db      	uxtb	r3, r3
 8001e4a:	2b04      	cmp	r3, #4
 8001e4c:	d000      	beq.n	8001e50 <fsm_tick_5ms+0x67c>
 8001e4e:	e091      	b.n	8001f74 <fsm_tick_5ms+0x7a0>
    sec_acc_run+=5;
 8001e50:	4b3b      	ldr	r3, [pc, #236]	@ (8001f40 <fsm_tick_5ms+0x76c>)
 8001e52:	881b      	ldrh	r3, [r3, #0]
 8001e54:	3305      	adds	r3, #5
 8001e56:	b29a      	uxth	r2, r3
 8001e58:	4b39      	ldr	r3, [pc, #228]	@ (8001f40 <fsm_tick_5ms+0x76c>)
 8001e5a:	801a      	strh	r2, [r3, #0]
    if(sec_acc_run>=1000){
 8001e5c:	4b38      	ldr	r3, [pc, #224]	@ (8001f40 <fsm_tick_5ms+0x76c>)
 8001e5e:	881a      	ldrh	r2, [r3, #0]
 8001e60:	23fa      	movs	r3, #250	@ 0xfa
 8001e62:	009b      	lsls	r3, r3, #2
 8001e64:	429a      	cmp	r2, r3
 8001e66:	d200      	bcs.n	8001e6a <fsm_tick_5ms+0x696>
 8001e68:	e084      	b.n	8001f74 <fsm_tick_5ms+0x7a0>
      sec_acc_run=0;
 8001e6a:	4b35      	ldr	r3, [pc, #212]	@ (8001f40 <fsm_tick_5ms+0x76c>)
 8001e6c:	2200      	movs	r2, #0
 8001e6e:	801a      	strh	r2, [r3, #0]
      if(time_left_s>0){
 8001e70:	4b32      	ldr	r3, [pc, #200]	@ (8001f3c <fsm_tick_5ms+0x768>)
 8001e72:	881b      	ldrh	r3, [r3, #0]
 8001e74:	b29b      	uxth	r3, r3
 8001e76:	2b00      	cmp	r3, #0
 8001e78:	d068      	beq.n	8001f4c <fsm_tick_5ms+0x778>
        time_left_s--; show_time_7seg(time_left_s);
 8001e7a:	4b30      	ldr	r3, [pc, #192]	@ (8001f3c <fsm_tick_5ms+0x768>)
 8001e7c:	881b      	ldrh	r3, [r3, #0]
 8001e7e:	b29b      	uxth	r3, r3
 8001e80:	3b01      	subs	r3, #1
 8001e82:	b29a      	uxth	r2, r3
 8001e84:	4b2d      	ldr	r3, [pc, #180]	@ (8001f3c <fsm_tick_5ms+0x768>)
 8001e86:	801a      	strh	r2, [r3, #0]
 8001e88:	4b2c      	ldr	r3, [pc, #176]	@ (8001f3c <fsm_tick_5ms+0x768>)
 8001e8a:	881b      	ldrh	r3, [r3, #0]
 8001e8c:	b29b      	uxth	r3, r3
 8001e8e:	0018      	movs	r0, r3
 8001e90:	f7fe ff9a 	bl	8000dc8 <show_time_7seg>
        char t[6]; fmt_mmss(time_left_s,t);
 8001e94:	4b29      	ldr	r3, [pc, #164]	@ (8001f3c <fsm_tick_5ms+0x768>)
 8001e96:	881b      	ldrh	r3, [r3, #0]
 8001e98:	b29b      	uxth	r3, r3
 8001e9a:	003a      	movs	r2, r7
 8001e9c:	0011      	movs	r1, r2
 8001e9e:	0018      	movs	r0, r3
 8001ea0:	f7ff fad0 	bl	8001444 <fmt_mmss>
        lcd_goto(0,0); lcd_puts("Calentando     ");
 8001ea4:	2100      	movs	r1, #0
 8001ea6:	2000      	movs	r0, #0
 8001ea8:	f7ff f960 	bl	800116c <lcd_goto>
 8001eac:	4b25      	ldr	r3, [pc, #148]	@ (8001f44 <fsm_tick_5ms+0x770>)
 8001eae:	0018      	movs	r0, r3
 8001eb0:	f7ff f977 	bl	80011a2 <lcd_puts>
        lcd_goto(0,1); lcd_puts("Tiempo: "); lcd_puts(t); lcd_puts("  ");
 8001eb4:	2101      	movs	r1, #1
 8001eb6:	2000      	movs	r0, #0
 8001eb8:	f7ff f958 	bl	800116c <lcd_goto>
 8001ebc:	4b22      	ldr	r3, [pc, #136]	@ (8001f48 <fsm_tick_5ms+0x774>)
 8001ebe:	0018      	movs	r0, r3
 8001ec0:	f7ff f96f 	bl	80011a2 <lcd_puts>
 8001ec4:	003b      	movs	r3, r7
 8001ec6:	0018      	movs	r0, r3
 8001ec8:	f7ff f96b 	bl	80011a2 <lcd_puts>
 8001ecc:	4b06      	ldr	r3, [pc, #24]	@ (8001ee8 <fsm_tick_5ms+0x714>)
 8001ece:	0018      	movs	r0, r3
 8001ed0:	f7ff f967 	bl	80011a2 <lcd_puts>
        show_time_7seg(0);
        stepper_stop();
      }
    }
  }
}
 8001ed4:	e04e      	b.n	8001f74 <fsm_tick_5ms+0x7a0>
 8001ed6:	46c0      	nop			@ (mov r8, r8)
 8001ed8:	2000009e 	.word	0x2000009e
 8001edc:	200000da 	.word	0x200000da
 8001ee0:	08002a54 	.word	0x08002a54
 8001ee4:	08002a64 	.word	0x08002a64
 8001ee8:	08002a6c 	.word	0x08002a6c
 8001eec:	200000a0 	.word	0x200000a0
 8001ef0:	200000dc 	.word	0x200000dc
 8001ef4:	08002a70 	.word	0x08002a70
 8001ef8:	08002b4c 	.word	0x08002b4c
 8001efc:	200000c9 	.word	0x200000c9
 8001f00:	08002ab0 	.word	0x08002ab0
 8001f04:	20000004 	.word	0x20000004
 8001f08:	200000a4 	.word	0x200000a4
 8001f0c:	200000a5 	.word	0x200000a5
 8001f10:	08002ac0 	.word	0x08002ac0
 8001f14:	08002a0c 	.word	0x08002a0c
 8001f18:	200000cb 	.word	0x200000cb
 8001f1c:	200000e2 	.word	0x200000e2
 8001f20:	200000ca 	.word	0x200000ca
 8001f24:	200000cc 	.word	0x200000cc
 8001f28:	200000ce 	.word	0x200000ce
 8001f2c:	20000001 	.word	0x20000001
 8001f30:	20000028 	.word	0x20000028
 8001f34:	08002ad0 	.word	0x08002ad0
 8001f38:	2000009c 	.word	0x2000009c
 8001f3c:	200000a2 	.word	0x200000a2
 8001f40:	200000de 	.word	0x200000de
 8001f44:	08002ae0 	.word	0x08002ae0
 8001f48:	08002af0 	.word	0x08002af0
        fsm_state=ST_IDLE; buzzer_beep3();
 8001f4c:	4b0b      	ldr	r3, [pc, #44]	@ (8001f7c <fsm_tick_5ms+0x7a8>)
 8001f4e:	2200      	movs	r2, #0
 8001f50:	701a      	strb	r2, [r3, #0]
 8001f52:	f7fe fb1b 	bl	800058c <buzzer_beep3>
        lcd_clear(); lcd_goto(0,0); lcd_puts("Finalizado");
 8001f56:	f7ff f901 	bl	800115c <lcd_clear>
 8001f5a:	2100      	movs	r1, #0
 8001f5c:	2000      	movs	r0, #0
 8001f5e:	f7ff f905 	bl	800116c <lcd_goto>
 8001f62:	4b07      	ldr	r3, [pc, #28]	@ (8001f80 <fsm_tick_5ms+0x7ac>)
 8001f64:	0018      	movs	r0, r3
 8001f66:	f7ff f91c 	bl	80011a2 <lcd_puts>
        show_time_7seg(0);
 8001f6a:	2000      	movs	r0, #0
 8001f6c:	f7fe ff2c 	bl	8000dc8 <show_time_7seg>
        stepper_stop();
 8001f70:	f7fe fc24 	bl	80007bc <stepper_stop>
}
 8001f74:	46c0      	nop			@ (mov r8, r8)
 8001f76:	46bd      	mov	sp, r7
 8001f78:	b01d      	add	sp, #116	@ 0x74
 8001f7a:	bdf0      	pop	{r4, r5, r6, r7, pc}
 8001f7c:	2000009e 	.word	0x2000009e
 8001f80:	08002afc 	.word	0x08002afc

08001f84 <_sbrk>:
 *
 * @param incr Memory size
 * @return Pointer to allocated memory
 */
void *_sbrk(ptrdiff_t incr)
{
 8001f84:	b580      	push	{r7, lr}
 8001f86:	b086      	sub	sp, #24
 8001f88:	af00      	add	r7, sp, #0
 8001f8a:	6078      	str	r0, [r7, #4]
  extern uint8_t _end; /* Symbol defined in the linker script */
  extern uint8_t _estack; /* Symbol defined in the linker script */
  extern uint32_t _Min_Stack_Size; /* Symbol defined in the linker script */
  const uint32_t stack_limit = (uint32_t)&_estack - (uint32_t)&_Min_Stack_Size;
 8001f8c:	4a14      	ldr	r2, [pc, #80]	@ (8001fe0 <_sbrk+0x5c>)
 8001f8e:	4b15      	ldr	r3, [pc, #84]	@ (8001fe4 <_sbrk+0x60>)
 8001f90:	1ad3      	subs	r3, r2, r3
 8001f92:	617b      	str	r3, [r7, #20]
  const uint8_t *max_heap = (uint8_t *)stack_limit;
 8001f94:	697b      	ldr	r3, [r7, #20]
 8001f96:	613b      	str	r3, [r7, #16]
  uint8_t *prev_heap_end;

  /* Initialize heap end at first call */
  if (NULL == __sbrk_heap_end)
 8001f98:	4b13      	ldr	r3, [pc, #76]	@ (8001fe8 <_sbrk+0x64>)
 8001f9a:	681b      	ldr	r3, [r3, #0]
 8001f9c:	2b00      	cmp	r3, #0
 8001f9e:	d102      	bne.n	8001fa6 <_sbrk+0x22>
  {
    __sbrk_heap_end = &_end;
 8001fa0:	4b11      	ldr	r3, [pc, #68]	@ (8001fe8 <_sbrk+0x64>)
 8001fa2:	4a12      	ldr	r2, [pc, #72]	@ (8001fec <_sbrk+0x68>)
 8001fa4:	601a      	str	r2, [r3, #0]
  }

  /* Protect heap from growing into the reserved MSP stack */
  if (__sbrk_heap_end + incr > max_heap)
 8001fa6:	4b10      	ldr	r3, [pc, #64]	@ (8001fe8 <_sbrk+0x64>)
 8001fa8:	681a      	ldr	r2, [r3, #0]
 8001faa:	687b      	ldr	r3, [r7, #4]
 8001fac:	18d3      	adds	r3, r2, r3
 8001fae:	693a      	ldr	r2, [r7, #16]
 8001fb0:	429a      	cmp	r2, r3
 8001fb2:	d207      	bcs.n	8001fc4 <_sbrk+0x40>
  {
    errno = ENOMEM;
 8001fb4:	f000 f87c 	bl	80020b0 <__errno>
 8001fb8:	0003      	movs	r3, r0
 8001fba:	220c      	movs	r2, #12
 8001fbc:	601a      	str	r2, [r3, #0]
    return (void *)-1;
 8001fbe:	2301      	movs	r3, #1
 8001fc0:	425b      	negs	r3, r3
 8001fc2:	e009      	b.n	8001fd8 <_sbrk+0x54>
  }

  prev_heap_end = __sbrk_heap_end;
 8001fc4:	4b08      	ldr	r3, [pc, #32]	@ (8001fe8 <_sbrk+0x64>)
 8001fc6:	681b      	ldr	r3, [r3, #0]
 8001fc8:	60fb      	str	r3, [r7, #12]
  __sbrk_heap_end += incr;
 8001fca:	4b07      	ldr	r3, [pc, #28]	@ (8001fe8 <_sbrk+0x64>)
 8001fcc:	681a      	ldr	r2, [r3, #0]
 8001fce:	687b      	ldr	r3, [r7, #4]
 8001fd0:	18d2      	adds	r2, r2, r3
 8001fd2:	4b05      	ldr	r3, [pc, #20]	@ (8001fe8 <_sbrk+0x64>)
 8001fd4:	601a      	str	r2, [r3, #0]

  return (void *)prev_heap_end;
 8001fd6:	68fb      	ldr	r3, [r7, #12]
}
 8001fd8:	0018      	movs	r0, r3
 8001fda:	46bd      	mov	sp, r7
 8001fdc:	b006      	add	sp, #24
 8001fde:	bd80      	pop	{r7, pc}
 8001fe0:	20002000 	.word	0x20002000
 8001fe4:	00000400 	.word	0x00000400
 8001fe8:	200000e4 	.word	0x200000e4
 8001fec:	20000230 	.word	0x20000230

08001ff0 <Reset_Handler>:

  .section .text.Reset_Handler
  .weak Reset_Handler
  .type Reset_Handler, %function
Reset_Handler:
  ldr   r0, =_estack
 8001ff0:	480d      	ldr	r0, [pc, #52]	@ (8002028 <LoopForever+0x2>)
  mov   sp, r0          /* set stack pointer */
 8001ff2:	4685      	mov	sp, r0
/* Call the clock system initialization function.*/
  bl  SystemInit
 8001ff4:	e000      	b.n	8001ff8 <Reset_Handler+0x8>
 8001ff6:	bf00      	nop

/* Copy the data segment initializers from flash to SRAM */
  ldr r0, =_sdata
 8001ff8:	480c      	ldr	r0, [pc, #48]	@ (800202c <LoopForever+0x6>)
  ldr r1, =_edata
 8001ffa:	490d      	ldr	r1, [pc, #52]	@ (8002030 <LoopForever+0xa>)
  ldr r2, =_sidata
 8001ffc:	4a0d      	ldr	r2, [pc, #52]	@ (8002034 <LoopForever+0xe>)
  movs r3, #0
 8001ffe:	2300      	movs	r3, #0
  b LoopCopyDataInit
 8002000:	e002      	b.n	8002008 <LoopCopyDataInit>

08002002 <CopyDataInit>:

CopyDataInit:
  ldr r4, [r2, r3]
 8002002:	58d4      	ldr	r4, [r2, r3]
  str r4, [r0, r3]
 8002004:	50c4      	str	r4, [r0, r3]
  adds r3, r3, #4
 8002006:	3304      	adds	r3, #4

08002008 <LoopCopyDataInit>:

LoopCopyDataInit:
  adds r4, r0, r3
 8002008:	18c4      	adds	r4, r0, r3
  cmp r4, r1
 800200a:	428c      	cmp	r4, r1
  bcc CopyDataInit
 800200c:	d3f9      	bcc.n	8002002 <CopyDataInit>

/* Zero fill the bss segment. */
  ldr r2, =_sbss
 800200e:	4a0a      	ldr	r2, [pc, #40]	@ (8002038 <LoopForever+0x12>)
  ldr r4, =_ebss
 8002010:	4c0a      	ldr	r4, [pc, #40]	@ (800203c <LoopForever+0x16>)
  movs r3, #0
 8002012:	2300      	movs	r3, #0
  b LoopFillZerobss
 8002014:	e001      	b.n	800201a <LoopFillZerobss>

08002016 <FillZerobss>:

FillZerobss:
  str  r3, [r2]
 8002016:	6013      	str	r3, [r2, #0]
  adds r2, r2, #4
 8002018:	3204      	adds	r2, #4

0800201a <LoopFillZerobss>:

LoopFillZerobss:
  cmp r2, r4
 800201a:	42a2      	cmp	r2, r4
  bcc FillZerobss
 800201c:	d3fb      	bcc.n	8002016 <FillZerobss>


/* Call static constructors */
  bl __libc_init_array
 800201e:	f000 f84d 	bl	80020bc <__libc_init_array>
/* Call the application's entry point.*/

  bl main
 8002022:	f7fe fc61 	bl	80008e8 <main>

08002026 <LoopForever>:

LoopForever:
  b LoopForever
 8002026:	e7fe      	b.n	8002026 <LoopForever>
  ldr   r0, =_estack
 8002028:	20002000 	.word	0x20002000
  ldr r0, =_sdata
 800202c:	20000000 	.word	0x20000000
  ldr r1, =_edata
 8002030:	2000007c 	.word	0x2000007c
  ldr r2, =_sidata
 8002034:	08002ba0 	.word	0x08002ba0
  ldr r2, =_sbss
 8002038:	2000007c 	.word	0x2000007c
  ldr r4, =_ebss
 800203c:	20000230 	.word	0x20000230

08002040 <ADC_COMP_IRQHandler>:
 * @retval : None
*/
  .section .text.Default_Handler,"ax",%progbits
Default_Handler:
Infinite_Loop:
  b Infinite_Loop
 8002040:	e7fe      	b.n	8002040 <ADC_COMP_IRQHandler>
	...

08002044 <sniprintf>:
 8002044:	b40c      	push	{r2, r3}
 8002046:	b530      	push	{r4, r5, lr}
 8002048:	4b18      	ldr	r3, [pc, #96]	@ (80020ac <sniprintf+0x68>)
 800204a:	000c      	movs	r4, r1
 800204c:	681d      	ldr	r5, [r3, #0]
 800204e:	b09d      	sub	sp, #116	@ 0x74
 8002050:	2900      	cmp	r1, #0
 8002052:	da08      	bge.n	8002066 <sniprintf+0x22>
 8002054:	238b      	movs	r3, #139	@ 0x8b
 8002056:	2001      	movs	r0, #1
 8002058:	602b      	str	r3, [r5, #0]
 800205a:	4240      	negs	r0, r0
 800205c:	b01d      	add	sp, #116	@ 0x74
 800205e:	bc30      	pop	{r4, r5}
 8002060:	bc08      	pop	{r3}
 8002062:	b002      	add	sp, #8
 8002064:	4718      	bx	r3
 8002066:	2382      	movs	r3, #130	@ 0x82
 8002068:	466a      	mov	r2, sp
 800206a:	009b      	lsls	r3, r3, #2
 800206c:	8293      	strh	r3, [r2, #20]
 800206e:	2300      	movs	r3, #0
 8002070:	9002      	str	r0, [sp, #8]
 8002072:	931b      	str	r3, [sp, #108]	@ 0x6c
 8002074:	9006      	str	r0, [sp, #24]
 8002076:	4299      	cmp	r1, r3
 8002078:	d000      	beq.n	800207c <sniprintf+0x38>
 800207a:	1e4b      	subs	r3, r1, #1
 800207c:	9304      	str	r3, [sp, #16]
 800207e:	9307      	str	r3, [sp, #28]
 8002080:	2301      	movs	r3, #1
 8002082:	466a      	mov	r2, sp
 8002084:	425b      	negs	r3, r3
 8002086:	82d3      	strh	r3, [r2, #22]
 8002088:	0028      	movs	r0, r5
 800208a:	ab21      	add	r3, sp, #132	@ 0x84
 800208c:	9a20      	ldr	r2, [sp, #128]	@ 0x80
 800208e:	a902      	add	r1, sp, #8
 8002090:	9301      	str	r3, [sp, #4]
 8002092:	f000 f995 	bl	80023c0 <_svfiprintf_r>
 8002096:	1c43      	adds	r3, r0, #1
 8002098:	da01      	bge.n	800209e <sniprintf+0x5a>
 800209a:	238b      	movs	r3, #139	@ 0x8b
 800209c:	602b      	str	r3, [r5, #0]
 800209e:	2c00      	cmp	r4, #0
 80020a0:	d0dc      	beq.n	800205c <sniprintf+0x18>
 80020a2:	2200      	movs	r2, #0
 80020a4:	9b02      	ldr	r3, [sp, #8]
 80020a6:	701a      	strb	r2, [r3, #0]
 80020a8:	e7d8      	b.n	800205c <sniprintf+0x18>
 80020aa:	46c0      	nop			@ (mov r8, r8)
 80020ac:	2000002c 	.word	0x2000002c

080020b0 <__errno>:
 80020b0:	4b01      	ldr	r3, [pc, #4]	@ (80020b8 <__errno+0x8>)
 80020b2:	6818      	ldr	r0, [r3, #0]
 80020b4:	4770      	bx	lr
 80020b6:	46c0      	nop			@ (mov r8, r8)
 80020b8:	2000002c 	.word	0x2000002c

080020bc <__libc_init_array>:
 80020bc:	b570      	push	{r4, r5, r6, lr}
 80020be:	2600      	movs	r6, #0
 80020c0:	4c0c      	ldr	r4, [pc, #48]	@ (80020f4 <__libc_init_array+0x38>)
 80020c2:	4d0d      	ldr	r5, [pc, #52]	@ (80020f8 <__libc_init_array+0x3c>)
 80020c4:	1b64      	subs	r4, r4, r5
 80020c6:	10a4      	asrs	r4, r4, #2
 80020c8:	42a6      	cmp	r6, r4
 80020ca:	d109      	bne.n	80020e0 <__libc_init_array+0x24>
 80020cc:	2600      	movs	r6, #0
 80020ce:	f000 fc61 	bl	8002994 <_init>
 80020d2:	4c0a      	ldr	r4, [pc, #40]	@ (80020fc <__libc_init_array+0x40>)
 80020d4:	4d0a      	ldr	r5, [pc, #40]	@ (8002100 <__libc_init_array+0x44>)
 80020d6:	1b64      	subs	r4, r4, r5
 80020d8:	10a4      	asrs	r4, r4, #2
 80020da:	42a6      	cmp	r6, r4
 80020dc:	d105      	bne.n	80020ea <__libc_init_array+0x2e>
 80020de:	bd70      	pop	{r4, r5, r6, pc}
 80020e0:	00b3      	lsls	r3, r6, #2
 80020e2:	58eb      	ldr	r3, [r5, r3]
 80020e4:	4798      	blx	r3
 80020e6:	3601      	adds	r6, #1
 80020e8:	e7ee      	b.n	80020c8 <__libc_init_array+0xc>
 80020ea:	00b3      	lsls	r3, r6, #2
 80020ec:	58eb      	ldr	r3, [r5, r3]
 80020ee:	4798      	blx	r3
 80020f0:	3601      	adds	r6, #1
 80020f2:	e7f2      	b.n	80020da <__libc_init_array+0x1e>
 80020f4:	08002b98 	.word	0x08002b98
 80020f8:	08002b98 	.word	0x08002b98
 80020fc:	08002b9c 	.word	0x08002b9c
 8002100:	08002b98 	.word	0x08002b98

08002104 <__retarget_lock_acquire_recursive>:
 8002104:	4770      	bx	lr

08002106 <__retarget_lock_release_recursive>:
 8002106:	4770      	bx	lr

08002108 <_free_r>:
 8002108:	b570      	push	{r4, r5, r6, lr}
 800210a:	0005      	movs	r5, r0
 800210c:	1e0c      	subs	r4, r1, #0
 800210e:	d010      	beq.n	8002132 <_free_r+0x2a>
 8002110:	3c04      	subs	r4, #4
 8002112:	6823      	ldr	r3, [r4, #0]
 8002114:	2b00      	cmp	r3, #0
 8002116:	da00      	bge.n	800211a <_free_r+0x12>
 8002118:	18e4      	adds	r4, r4, r3
 800211a:	0028      	movs	r0, r5
 800211c:	f000 f8e0 	bl	80022e0 <__malloc_lock>
 8002120:	4a1d      	ldr	r2, [pc, #116]	@ (8002198 <_free_r+0x90>)
 8002122:	6813      	ldr	r3, [r2, #0]
 8002124:	2b00      	cmp	r3, #0
 8002126:	d105      	bne.n	8002134 <_free_r+0x2c>
 8002128:	6063      	str	r3, [r4, #4]
 800212a:	6014      	str	r4, [r2, #0]
 800212c:	0028      	movs	r0, r5
 800212e:	f000 f8df 	bl	80022f0 <__malloc_unlock>
 8002132:	bd70      	pop	{r4, r5, r6, pc}
 8002134:	42a3      	cmp	r3, r4
 8002136:	d908      	bls.n	800214a <_free_r+0x42>
 8002138:	6820      	ldr	r0, [r4, #0]
 800213a:	1821      	adds	r1, r4, r0
 800213c:	428b      	cmp	r3, r1
 800213e:	d1f3      	bne.n	8002128 <_free_r+0x20>
 8002140:	6819      	ldr	r1, [r3, #0]
 8002142:	685b      	ldr	r3, [r3, #4]
 8002144:	1809      	adds	r1, r1, r0
 8002146:	6021      	str	r1, [r4, #0]
 8002148:	e7ee      	b.n	8002128 <_free_r+0x20>
 800214a:	001a      	movs	r2, r3
 800214c:	685b      	ldr	r3, [r3, #4]
 800214e:	2b00      	cmp	r3, #0
 8002150:	d001      	beq.n	8002156 <_free_r+0x4e>
 8002152:	42a3      	cmp	r3, r4
 8002154:	d9f9      	bls.n	800214a <_free_r+0x42>
 8002156:	6811      	ldr	r1, [r2, #0]
 8002158:	1850      	adds	r0, r2, r1
 800215a:	42a0      	cmp	r0, r4
 800215c:	d10b      	bne.n	8002176 <_free_r+0x6e>
 800215e:	6820      	ldr	r0, [r4, #0]
 8002160:	1809      	adds	r1, r1, r0
 8002162:	1850      	adds	r0, r2, r1
 8002164:	6011      	str	r1, [r2, #0]
 8002166:	4283      	cmp	r3, r0
 8002168:	d1e0      	bne.n	800212c <_free_r+0x24>
 800216a:	6818      	ldr	r0, [r3, #0]
 800216c:	685b      	ldr	r3, [r3, #4]
 800216e:	1841      	adds	r1, r0, r1
 8002170:	6011      	str	r1, [r2, #0]
 8002172:	6053      	str	r3, [r2, #4]
 8002174:	e7da      	b.n	800212c <_free_r+0x24>
 8002176:	42a0      	cmp	r0, r4
 8002178:	d902      	bls.n	8002180 <_free_r+0x78>
 800217a:	230c      	movs	r3, #12
 800217c:	602b      	str	r3, [r5, #0]
 800217e:	e7d5      	b.n	800212c <_free_r+0x24>
 8002180:	6820      	ldr	r0, [r4, #0]
 8002182:	1821      	adds	r1, r4, r0
 8002184:	428b      	cmp	r3, r1
 8002186:	d103      	bne.n	8002190 <_free_r+0x88>
 8002188:	6819      	ldr	r1, [r3, #0]
 800218a:	685b      	ldr	r3, [r3, #4]
 800218c:	1809      	adds	r1, r1, r0
 800218e:	6021      	str	r1, [r4, #0]
 8002190:	6063      	str	r3, [r4, #4]
 8002192:	6054      	str	r4, [r2, #4]
 8002194:	e7ca      	b.n	800212c <_free_r+0x24>
 8002196:	46c0      	nop			@ (mov r8, r8)
 8002198:	2000022c 	.word	0x2000022c

0800219c <sbrk_aligned>:
 800219c:	b570      	push	{r4, r5, r6, lr}
 800219e:	4e0f      	ldr	r6, [pc, #60]	@ (80021dc <sbrk_aligned+0x40>)
 80021a0:	000d      	movs	r5, r1
 80021a2:	6831      	ldr	r1, [r6, #0]
 80021a4:	0004      	movs	r4, r0
 80021a6:	2900      	cmp	r1, #0
 80021a8:	d102      	bne.n	80021b0 <sbrk_aligned+0x14>
 80021aa:	f000 fb95 	bl	80028d8 <_sbrk_r>
 80021ae:	6030      	str	r0, [r6, #0]
 80021b0:	0029      	movs	r1, r5
 80021b2:	0020      	movs	r0, r4
 80021b4:	f000 fb90 	bl	80028d8 <_sbrk_r>
 80021b8:	1c43      	adds	r3, r0, #1
 80021ba:	d103      	bne.n	80021c4 <sbrk_aligned+0x28>
 80021bc:	2501      	movs	r5, #1
 80021be:	426d      	negs	r5, r5
 80021c0:	0028      	movs	r0, r5
 80021c2:	bd70      	pop	{r4, r5, r6, pc}
 80021c4:	2303      	movs	r3, #3
 80021c6:	1cc5      	adds	r5, r0, #3
 80021c8:	439d      	bics	r5, r3
 80021ca:	42a8      	cmp	r0, r5
 80021cc:	d0f8      	beq.n	80021c0 <sbrk_aligned+0x24>
 80021ce:	1a29      	subs	r1, r5, r0
 80021d0:	0020      	movs	r0, r4
 80021d2:	f000 fb81 	bl	80028d8 <_sbrk_r>
 80021d6:	3001      	adds	r0, #1
 80021d8:	d1f2      	bne.n	80021c0 <sbrk_aligned+0x24>
 80021da:	e7ef      	b.n	80021bc <sbrk_aligned+0x20>
 80021dc:	20000228 	.word	0x20000228

080021e0 <_malloc_r>:
 80021e0:	b5f7      	push	{r0, r1, r2, r4, r5, r6, r7, lr}
 80021e2:	2203      	movs	r2, #3
 80021e4:	1ccb      	adds	r3, r1, #3
 80021e6:	4393      	bics	r3, r2
 80021e8:	3308      	adds	r3, #8
 80021ea:	0005      	movs	r5, r0
 80021ec:	001f      	movs	r7, r3
 80021ee:	2b0c      	cmp	r3, #12
 80021f0:	d234      	bcs.n	800225c <_malloc_r+0x7c>
 80021f2:	270c      	movs	r7, #12
 80021f4:	42b9      	cmp	r1, r7
 80021f6:	d833      	bhi.n	8002260 <_malloc_r+0x80>
 80021f8:	0028      	movs	r0, r5
 80021fa:	f000 f871 	bl	80022e0 <__malloc_lock>
 80021fe:	4e37      	ldr	r6, [pc, #220]	@ (80022dc <_malloc_r+0xfc>)
 8002200:	6833      	ldr	r3, [r6, #0]
 8002202:	001c      	movs	r4, r3
 8002204:	2c00      	cmp	r4, #0
 8002206:	d12f      	bne.n	8002268 <_malloc_r+0x88>
 8002208:	0039      	movs	r1, r7
 800220a:	0028      	movs	r0, r5
 800220c:	f7ff ffc6 	bl	800219c <sbrk_aligned>
 8002210:	0004      	movs	r4, r0
 8002212:	1c43      	adds	r3, r0, #1
 8002214:	d15f      	bne.n	80022d6 <_malloc_r+0xf6>
 8002216:	6834      	ldr	r4, [r6, #0]
 8002218:	9400      	str	r4, [sp, #0]
 800221a:	9b00      	ldr	r3, [sp, #0]
 800221c:	2b00      	cmp	r3, #0
 800221e:	d14a      	bne.n	80022b6 <_malloc_r+0xd6>
 8002220:	2c00      	cmp	r4, #0
 8002222:	d052      	beq.n	80022ca <_malloc_r+0xea>
 8002224:	6823      	ldr	r3, [r4, #0]
 8002226:	0028      	movs	r0, r5
 8002228:	18e3      	adds	r3, r4, r3
 800222a:	9900      	ldr	r1, [sp, #0]
 800222c:	9301      	str	r3, [sp, #4]
 800222e:	f000 fb53 	bl	80028d8 <_sbrk_r>
 8002232:	9b01      	ldr	r3, [sp, #4]
 8002234:	4283      	cmp	r3, r0
 8002236:	d148      	bne.n	80022ca <_malloc_r+0xea>
 8002238:	6823      	ldr	r3, [r4, #0]
 800223a:	0028      	movs	r0, r5
 800223c:	1aff      	subs	r7, r7, r3
 800223e:	0039      	movs	r1, r7
 8002240:	f7ff ffac 	bl	800219c <sbrk_aligned>
 8002244:	3001      	adds	r0, #1
 8002246:	d040      	beq.n	80022ca <_malloc_r+0xea>
 8002248:	6823      	ldr	r3, [r4, #0]
 800224a:	19db      	adds	r3, r3, r7
 800224c:	6023      	str	r3, [r4, #0]
 800224e:	6833      	ldr	r3, [r6, #0]
 8002250:	685a      	ldr	r2, [r3, #4]
 8002252:	2a00      	cmp	r2, #0
 8002254:	d133      	bne.n	80022be <_malloc_r+0xde>
 8002256:	9b00      	ldr	r3, [sp, #0]
 8002258:	6033      	str	r3, [r6, #0]
 800225a:	e019      	b.n	8002290 <_malloc_r+0xb0>
 800225c:	2b00      	cmp	r3, #0
 800225e:	dac9      	bge.n	80021f4 <_malloc_r+0x14>
 8002260:	230c      	movs	r3, #12
 8002262:	602b      	str	r3, [r5, #0]
 8002264:	2000      	movs	r0, #0
 8002266:	bdfe      	pop	{r1, r2, r3, r4, r5, r6, r7, pc}
 8002268:	6821      	ldr	r1, [r4, #0]
 800226a:	1bc9      	subs	r1, r1, r7
 800226c:	d420      	bmi.n	80022b0 <_malloc_r+0xd0>
 800226e:	290b      	cmp	r1, #11
 8002270:	d90a      	bls.n	8002288 <_malloc_r+0xa8>
 8002272:	19e2      	adds	r2, r4, r7
 8002274:	6027      	str	r7, [r4, #0]
 8002276:	42a3      	cmp	r3, r4
 8002278:	d104      	bne.n	8002284 <_malloc_r+0xa4>
 800227a:	6032      	str	r2, [r6, #0]
 800227c:	6863      	ldr	r3, [r4, #4]
 800227e:	6011      	str	r1, [r2, #0]
 8002280:	6053      	str	r3, [r2, #4]
 8002282:	e005      	b.n	8002290 <_malloc_r+0xb0>
 8002284:	605a      	str	r2, [r3, #4]
 8002286:	e7f9      	b.n	800227c <_malloc_r+0x9c>
 8002288:	6862      	ldr	r2, [r4, #4]
 800228a:	42a3      	cmp	r3, r4
 800228c:	d10e      	bne.n	80022ac <_malloc_r+0xcc>
 800228e:	6032      	str	r2, [r6, #0]
 8002290:	0028      	movs	r0, r5
 8002292:	f000 f82d 	bl	80022f0 <__malloc_unlock>
 8002296:	0020      	movs	r0, r4
 8002298:	2207      	movs	r2, #7
 800229a:	300b      	adds	r0, #11
 800229c:	1d23      	adds	r3, r4, #4
 800229e:	4390      	bics	r0, r2
 80022a0:	1ac2      	subs	r2, r0, r3
 80022a2:	4298      	cmp	r0, r3
 80022a4:	d0df      	beq.n	8002266 <_malloc_r+0x86>
 80022a6:	1a1b      	subs	r3, r3, r0
 80022a8:	50a3      	str	r3, [r4, r2]
 80022aa:	e7dc      	b.n	8002266 <_malloc_r+0x86>
 80022ac:	605a      	str	r2, [r3, #4]
 80022ae:	e7ef      	b.n	8002290 <_malloc_r+0xb0>
 80022b0:	0023      	movs	r3, r4
 80022b2:	6864      	ldr	r4, [r4, #4]
 80022b4:	e7a6      	b.n	8002204 <_malloc_r+0x24>
 80022b6:	9c00      	ldr	r4, [sp, #0]
 80022b8:	6863      	ldr	r3, [r4, #4]
 80022ba:	9300      	str	r3, [sp, #0]
 80022bc:	e7ad      	b.n	800221a <_malloc_r+0x3a>
 80022be:	001a      	movs	r2, r3
 80022c0:	685b      	ldr	r3, [r3, #4]
 80022c2:	42a3      	cmp	r3, r4
 80022c4:	d1fb      	bne.n	80022be <_malloc_r+0xde>
 80022c6:	2300      	movs	r3, #0
 80022c8:	e7da      	b.n	8002280 <_malloc_r+0xa0>
 80022ca:	230c      	movs	r3, #12
 80022cc:	0028      	movs	r0, r5
 80022ce:	602b      	str	r3, [r5, #0]
 80022d0:	f000 f80e 	bl	80022f0 <__malloc_unlock>
 80022d4:	e7c6      	b.n	8002264 <_malloc_r+0x84>
 80022d6:	6007      	str	r7, [r0, #0]
 80022d8:	e7da      	b.n	8002290 <_malloc_r+0xb0>
 80022da:	46c0      	nop			@ (mov r8, r8)
 80022dc:	2000022c 	.word	0x2000022c

080022e0 <__malloc_lock>:
 80022e0:	b510      	push	{r4, lr}
 80022e2:	4802      	ldr	r0, [pc, #8]	@ (80022ec <__malloc_lock+0xc>)
 80022e4:	f7ff ff0e 	bl	8002104 <__retarget_lock_acquire_recursive>
 80022e8:	bd10      	pop	{r4, pc}
 80022ea:	46c0      	nop			@ (mov r8, r8)
 80022ec:	20000224 	.word	0x20000224

080022f0 <__malloc_unlock>:
 80022f0:	b510      	push	{r4, lr}
 80022f2:	4802      	ldr	r0, [pc, #8]	@ (80022fc <__malloc_unlock+0xc>)
 80022f4:	f7ff ff07 	bl	8002106 <__retarget_lock_release_recursive>
 80022f8:	bd10      	pop	{r4, pc}
 80022fa:	46c0      	nop			@ (mov r8, r8)
 80022fc:	20000224 	.word	0x20000224

08002300 <__ssputs_r>:
 8002300:	b5f0      	push	{r4, r5, r6, r7, lr}
 8002302:	688e      	ldr	r6, [r1, #8]
 8002304:	b085      	sub	sp, #20
 8002306:	001f      	movs	r7, r3
 8002308:	000c      	movs	r4, r1
 800230a:	680b      	ldr	r3, [r1, #0]
 800230c:	9002      	str	r0, [sp, #8]
 800230e:	9203      	str	r2, [sp, #12]
 8002310:	42be      	cmp	r6, r7
 8002312:	d830      	bhi.n	8002376 <__ssputs_r+0x76>
 8002314:	210c      	movs	r1, #12
 8002316:	5e62      	ldrsh	r2, [r4, r1]
 8002318:	2190      	movs	r1, #144	@ 0x90
 800231a:	00c9      	lsls	r1, r1, #3
 800231c:	420a      	tst	r2, r1
 800231e:	d028      	beq.n	8002372 <__ssputs_r+0x72>
 8002320:	2003      	movs	r0, #3
 8002322:	6921      	ldr	r1, [r4, #16]
 8002324:	1a5b      	subs	r3, r3, r1
 8002326:	9301      	str	r3, [sp, #4]
 8002328:	6963      	ldr	r3, [r4, #20]
 800232a:	4343      	muls	r3, r0
 800232c:	9801      	ldr	r0, [sp, #4]
 800232e:	0fdd      	lsrs	r5, r3, #31
 8002330:	18ed      	adds	r5, r5, r3
 8002332:	1c7b      	adds	r3, r7, #1
 8002334:	181b      	adds	r3, r3, r0
 8002336:	106d      	asrs	r5, r5, #1
 8002338:	42ab      	cmp	r3, r5
 800233a:	d900      	bls.n	800233e <__ssputs_r+0x3e>
 800233c:	001d      	movs	r5, r3
 800233e:	0552      	lsls	r2, r2, #21
 8002340:	d528      	bpl.n	8002394 <__ssputs_r+0x94>
 8002342:	0029      	movs	r1, r5
 8002344:	9802      	ldr	r0, [sp, #8]
 8002346:	f7ff ff4b 	bl	80021e0 <_malloc_r>
 800234a:	1e06      	subs	r6, r0, #0
 800234c:	d02c      	beq.n	80023a8 <__ssputs_r+0xa8>
 800234e:	9a01      	ldr	r2, [sp, #4]
 8002350:	6921      	ldr	r1, [r4, #16]
 8002352:	f000 fade 	bl	8002912 <memcpy>
 8002356:	89a2      	ldrh	r2, [r4, #12]
 8002358:	4b18      	ldr	r3, [pc, #96]	@ (80023bc <__ssputs_r+0xbc>)
 800235a:	401a      	ands	r2, r3
 800235c:	2380      	movs	r3, #128	@ 0x80
 800235e:	4313      	orrs	r3, r2
 8002360:	81a3      	strh	r3, [r4, #12]
 8002362:	9b01      	ldr	r3, [sp, #4]
 8002364:	6126      	str	r6, [r4, #16]
 8002366:	18f6      	adds	r6, r6, r3
 8002368:	6026      	str	r6, [r4, #0]
 800236a:	003e      	movs	r6, r7
 800236c:	6165      	str	r5, [r4, #20]
 800236e:	1aed      	subs	r5, r5, r3
 8002370:	60a5      	str	r5, [r4, #8]
 8002372:	42be      	cmp	r6, r7
 8002374:	d900      	bls.n	8002378 <__ssputs_r+0x78>
 8002376:	003e      	movs	r6, r7
 8002378:	0032      	movs	r2, r6
 800237a:	9903      	ldr	r1, [sp, #12]
 800237c:	6820      	ldr	r0, [r4, #0]
 800237e:	f000 fa99 	bl	80028b4 <memmove>
 8002382:	2000      	movs	r0, #0
 8002384:	68a3      	ldr	r3, [r4, #8]
 8002386:	1b9b      	subs	r3, r3, r6
 8002388:	60a3      	str	r3, [r4, #8]
 800238a:	6823      	ldr	r3, [r4, #0]
 800238c:	199b      	adds	r3, r3, r6
 800238e:	6023      	str	r3, [r4, #0]
 8002390:	b005      	add	sp, #20
 8002392:	bdf0      	pop	{r4, r5, r6, r7, pc}
 8002394:	002a      	movs	r2, r5
 8002396:	9802      	ldr	r0, [sp, #8]
 8002398:	f000 fac4 	bl	8002924 <_realloc_r>
 800239c:	1e06      	subs	r6, r0, #0
 800239e:	d1e0      	bne.n	8002362 <__ssputs_r+0x62>
 80023a0:	6921      	ldr	r1, [r4, #16]
 80023a2:	9802      	ldr	r0, [sp, #8]
 80023a4:	f7ff feb0 	bl	8002108 <_free_r>
 80023a8:	230c      	movs	r3, #12
 80023aa:	2001      	movs	r0, #1
 80023ac:	9a02      	ldr	r2, [sp, #8]
 80023ae:	4240      	negs	r0, r0
 80023b0:	6013      	str	r3, [r2, #0]
 80023b2:	89a2      	ldrh	r2, [r4, #12]
 80023b4:	3334      	adds	r3, #52	@ 0x34
 80023b6:	4313      	orrs	r3, r2
 80023b8:	81a3      	strh	r3, [r4, #12]
 80023ba:	e7e9      	b.n	8002390 <__ssputs_r+0x90>
 80023bc:	fffffb7f 	.word	0xfffffb7f

080023c0 <_svfiprintf_r>:
 80023c0:	b5f0      	push	{r4, r5, r6, r7, lr}
 80023c2:	b0a1      	sub	sp, #132	@ 0x84
 80023c4:	9003      	str	r0, [sp, #12]
 80023c6:	001d      	movs	r5, r3
 80023c8:	898b      	ldrh	r3, [r1, #12]
 80023ca:	000f      	movs	r7, r1
 80023cc:	0016      	movs	r6, r2
 80023ce:	061b      	lsls	r3, r3, #24
 80023d0:	d511      	bpl.n	80023f6 <_svfiprintf_r+0x36>
 80023d2:	690b      	ldr	r3, [r1, #16]
 80023d4:	2b00      	cmp	r3, #0
 80023d6:	d10e      	bne.n	80023f6 <_svfiprintf_r+0x36>
 80023d8:	2140      	movs	r1, #64	@ 0x40
 80023da:	f7ff ff01 	bl	80021e0 <_malloc_r>
 80023de:	6038      	str	r0, [r7, #0]
 80023e0:	6138      	str	r0, [r7, #16]
 80023e2:	2800      	cmp	r0, #0
 80023e4:	d105      	bne.n	80023f2 <_svfiprintf_r+0x32>
 80023e6:	230c      	movs	r3, #12
 80023e8:	9a03      	ldr	r2, [sp, #12]
 80023ea:	6013      	str	r3, [r2, #0]
 80023ec:	2001      	movs	r0, #1
 80023ee:	4240      	negs	r0, r0
 80023f0:	e0cf      	b.n	8002592 <_svfiprintf_r+0x1d2>
 80023f2:	2340      	movs	r3, #64	@ 0x40
 80023f4:	617b      	str	r3, [r7, #20]
 80023f6:	2300      	movs	r3, #0
 80023f8:	ac08      	add	r4, sp, #32
 80023fa:	6163      	str	r3, [r4, #20]
 80023fc:	3320      	adds	r3, #32
 80023fe:	7663      	strb	r3, [r4, #25]
 8002400:	3310      	adds	r3, #16
 8002402:	76a3      	strb	r3, [r4, #26]
 8002404:	9507      	str	r5, [sp, #28]
 8002406:	0035      	movs	r5, r6
 8002408:	782b      	ldrb	r3, [r5, #0]
 800240a:	2b00      	cmp	r3, #0
 800240c:	d001      	beq.n	8002412 <_svfiprintf_r+0x52>
 800240e:	2b25      	cmp	r3, #37	@ 0x25
 8002410:	d148      	bne.n	80024a4 <_svfiprintf_r+0xe4>
 8002412:	1bab      	subs	r3, r5, r6
 8002414:	9305      	str	r3, [sp, #20]
 8002416:	42b5      	cmp	r5, r6
 8002418:	d00b      	beq.n	8002432 <_svfiprintf_r+0x72>
 800241a:	0032      	movs	r2, r6
 800241c:	0039      	movs	r1, r7
 800241e:	9803      	ldr	r0, [sp, #12]
 8002420:	f7ff ff6e 	bl	8002300 <__ssputs_r>
 8002424:	3001      	adds	r0, #1
 8002426:	d100      	bne.n	800242a <_svfiprintf_r+0x6a>
 8002428:	e0ae      	b.n	8002588 <_svfiprintf_r+0x1c8>
 800242a:	6963      	ldr	r3, [r4, #20]
 800242c:	9a05      	ldr	r2, [sp, #20]
 800242e:	189b      	adds	r3, r3, r2
 8002430:	6163      	str	r3, [r4, #20]
 8002432:	782b      	ldrb	r3, [r5, #0]
 8002434:	2b00      	cmp	r3, #0
 8002436:	d100      	bne.n	800243a <_svfiprintf_r+0x7a>
 8002438:	e0a6      	b.n	8002588 <_svfiprintf_r+0x1c8>
 800243a:	2201      	movs	r2, #1
 800243c:	2300      	movs	r3, #0
 800243e:	4252      	negs	r2, r2
 8002440:	6062      	str	r2, [r4, #4]
 8002442:	a904      	add	r1, sp, #16
 8002444:	3254      	adds	r2, #84	@ 0x54
 8002446:	1852      	adds	r2, r2, r1
 8002448:	1c6e      	adds	r6, r5, #1
 800244a:	6023      	str	r3, [r4, #0]
 800244c:	60e3      	str	r3, [r4, #12]
 800244e:	60a3      	str	r3, [r4, #8]
 8002450:	7013      	strb	r3, [r2, #0]
 8002452:	65a3      	str	r3, [r4, #88]	@ 0x58
 8002454:	4b54      	ldr	r3, [pc, #336]	@ (80025a8 <_svfiprintf_r+0x1e8>)
 8002456:	2205      	movs	r2, #5
 8002458:	0018      	movs	r0, r3
 800245a:	7831      	ldrb	r1, [r6, #0]
 800245c:	9305      	str	r3, [sp, #20]
 800245e:	f000 fa4d 	bl	80028fc <memchr>
 8002462:	1c75      	adds	r5, r6, #1
 8002464:	2800      	cmp	r0, #0
 8002466:	d11f      	bne.n	80024a8 <_svfiprintf_r+0xe8>
 8002468:	6822      	ldr	r2, [r4, #0]
 800246a:	06d3      	lsls	r3, r2, #27
 800246c:	d504      	bpl.n	8002478 <_svfiprintf_r+0xb8>
 800246e:	2353      	movs	r3, #83	@ 0x53
 8002470:	a904      	add	r1, sp, #16
 8002472:	185b      	adds	r3, r3, r1
 8002474:	2120      	movs	r1, #32
 8002476:	7019      	strb	r1, [r3, #0]
 8002478:	0713      	lsls	r3, r2, #28
 800247a:	d504      	bpl.n	8002486 <_svfiprintf_r+0xc6>
 800247c:	2353      	movs	r3, #83	@ 0x53
 800247e:	a904      	add	r1, sp, #16
 8002480:	185b      	adds	r3, r3, r1
 8002482:	212b      	movs	r1, #43	@ 0x2b
 8002484:	7019      	strb	r1, [r3, #0]
 8002486:	7833      	ldrb	r3, [r6, #0]
 8002488:	2b2a      	cmp	r3, #42	@ 0x2a
 800248a:	d016      	beq.n	80024ba <_svfiprintf_r+0xfa>
 800248c:	0035      	movs	r5, r6
 800248e:	2100      	movs	r1, #0
 8002490:	200a      	movs	r0, #10
 8002492:	68e3      	ldr	r3, [r4, #12]
 8002494:	782a      	ldrb	r2, [r5, #0]
 8002496:	1c6e      	adds	r6, r5, #1
 8002498:	3a30      	subs	r2, #48	@ 0x30
 800249a:	2a09      	cmp	r2, #9
 800249c:	d950      	bls.n	8002540 <_svfiprintf_r+0x180>
 800249e:	2900      	cmp	r1, #0
 80024a0:	d111      	bne.n	80024c6 <_svfiprintf_r+0x106>
 80024a2:	e017      	b.n	80024d4 <_svfiprintf_r+0x114>
 80024a4:	3501      	adds	r5, #1
 80024a6:	e7af      	b.n	8002408 <_svfiprintf_r+0x48>
 80024a8:	9b05      	ldr	r3, [sp, #20]
 80024aa:	6822      	ldr	r2, [r4, #0]
 80024ac:	1ac0      	subs	r0, r0, r3
 80024ae:	2301      	movs	r3, #1
 80024b0:	4083      	lsls	r3, r0
 80024b2:	4313      	orrs	r3, r2
 80024b4:	002e      	movs	r6, r5
 80024b6:	6023      	str	r3, [r4, #0]
 80024b8:	e7cc      	b.n	8002454 <_svfiprintf_r+0x94>
 80024ba:	9b07      	ldr	r3, [sp, #28]
 80024bc:	1d19      	adds	r1, r3, #4
 80024be:	681b      	ldr	r3, [r3, #0]
 80024c0:	9107      	str	r1, [sp, #28]
 80024c2:	2b00      	cmp	r3, #0
 80024c4:	db01      	blt.n	80024ca <_svfiprintf_r+0x10a>
 80024c6:	930b      	str	r3, [sp, #44]	@ 0x2c
 80024c8:	e004      	b.n	80024d4 <_svfiprintf_r+0x114>
 80024ca:	425b      	negs	r3, r3
 80024cc:	60e3      	str	r3, [r4, #12]
 80024ce:	2302      	movs	r3, #2
 80024d0:	4313      	orrs	r3, r2
 80024d2:	6023      	str	r3, [r4, #0]
 80024d4:	782b      	ldrb	r3, [r5, #0]
 80024d6:	2b2e      	cmp	r3, #46	@ 0x2e
 80024d8:	d10c      	bne.n	80024f4 <_svfiprintf_r+0x134>
 80024da:	786b      	ldrb	r3, [r5, #1]
 80024dc:	2b2a      	cmp	r3, #42	@ 0x2a
 80024de:	d134      	bne.n	800254a <_svfiprintf_r+0x18a>
 80024e0:	9b07      	ldr	r3, [sp, #28]
 80024e2:	3502      	adds	r5, #2
 80024e4:	1d1a      	adds	r2, r3, #4
 80024e6:	681b      	ldr	r3, [r3, #0]
 80024e8:	9207      	str	r2, [sp, #28]
 80024ea:	2b00      	cmp	r3, #0
 80024ec:	da01      	bge.n	80024f2 <_svfiprintf_r+0x132>
 80024ee:	2301      	movs	r3, #1
 80024f0:	425b      	negs	r3, r3
 80024f2:	9309      	str	r3, [sp, #36]	@ 0x24
 80024f4:	4e2d      	ldr	r6, [pc, #180]	@ (80025ac <_svfiprintf_r+0x1ec>)
 80024f6:	2203      	movs	r2, #3
 80024f8:	0030      	movs	r0, r6
 80024fa:	7829      	ldrb	r1, [r5, #0]
 80024fc:	f000 f9fe 	bl	80028fc <memchr>
 8002500:	2800      	cmp	r0, #0
 8002502:	d006      	beq.n	8002512 <_svfiprintf_r+0x152>
 8002504:	2340      	movs	r3, #64	@ 0x40
 8002506:	1b80      	subs	r0, r0, r6
 8002508:	4083      	lsls	r3, r0
 800250a:	6822      	ldr	r2, [r4, #0]
 800250c:	3501      	adds	r5, #1
 800250e:	4313      	orrs	r3, r2
 8002510:	6023      	str	r3, [r4, #0]
 8002512:	7829      	ldrb	r1, [r5, #0]
 8002514:	2206      	movs	r2, #6
 8002516:	4826      	ldr	r0, [pc, #152]	@ (80025b0 <_svfiprintf_r+0x1f0>)
 8002518:	1c6e      	adds	r6, r5, #1
 800251a:	7621      	strb	r1, [r4, #24]
 800251c:	f000 f9ee 	bl	80028fc <memchr>
 8002520:	2800      	cmp	r0, #0
 8002522:	d038      	beq.n	8002596 <_svfiprintf_r+0x1d6>
 8002524:	4b23      	ldr	r3, [pc, #140]	@ (80025b4 <_svfiprintf_r+0x1f4>)
 8002526:	2b00      	cmp	r3, #0
 8002528:	d122      	bne.n	8002570 <_svfiprintf_r+0x1b0>
 800252a:	2207      	movs	r2, #7
 800252c:	9b07      	ldr	r3, [sp, #28]
 800252e:	3307      	adds	r3, #7
 8002530:	4393      	bics	r3, r2
 8002532:	3308      	adds	r3, #8
 8002534:	9307      	str	r3, [sp, #28]
 8002536:	6963      	ldr	r3, [r4, #20]
 8002538:	9a04      	ldr	r2, [sp, #16]
 800253a:	189b      	adds	r3, r3, r2
 800253c:	6163      	str	r3, [r4, #20]
 800253e:	e762      	b.n	8002406 <_svfiprintf_r+0x46>
 8002540:	4343      	muls	r3, r0
 8002542:	0035      	movs	r5, r6
 8002544:	2101      	movs	r1, #1
 8002546:	189b      	adds	r3, r3, r2
 8002548:	e7a4      	b.n	8002494 <_svfiprintf_r+0xd4>
 800254a:	2300      	movs	r3, #0
 800254c:	200a      	movs	r0, #10
 800254e:	0019      	movs	r1, r3
 8002550:	3501      	adds	r5, #1
 8002552:	6063      	str	r3, [r4, #4]
 8002554:	782a      	ldrb	r2, [r5, #0]
 8002556:	1c6e      	adds	r6, r5, #1
 8002558:	3a30      	subs	r2, #48	@ 0x30
 800255a:	2a09      	cmp	r2, #9
 800255c:	d903      	bls.n	8002566 <_svfiprintf_r+0x1a6>
 800255e:	2b00      	cmp	r3, #0
 8002560:	d0c8      	beq.n	80024f4 <_svfiprintf_r+0x134>
 8002562:	9109      	str	r1, [sp, #36]	@ 0x24
 8002564:	e7c6      	b.n	80024f4 <_svfiprintf_r+0x134>
 8002566:	4341      	muls	r1, r0
 8002568:	0035      	movs	r5, r6
 800256a:	2301      	movs	r3, #1
 800256c:	1889      	adds	r1, r1, r2
 800256e:	e7f1      	b.n	8002554 <_svfiprintf_r+0x194>
 8002570:	aa07      	add	r2, sp, #28
 8002572:	9200      	str	r2, [sp, #0]
 8002574:	0021      	movs	r1, r4
 8002576:	003a      	movs	r2, r7
 8002578:	4b0f      	ldr	r3, [pc, #60]	@ (80025b8 <_svfiprintf_r+0x1f8>)
 800257a:	9803      	ldr	r0, [sp, #12]
 800257c:	e000      	b.n	8002580 <_svfiprintf_r+0x1c0>
 800257e:	bf00      	nop
 8002580:	9004      	str	r0, [sp, #16]
 8002582:	9b04      	ldr	r3, [sp, #16]
 8002584:	3301      	adds	r3, #1
 8002586:	d1d6      	bne.n	8002536 <_svfiprintf_r+0x176>
 8002588:	89bb      	ldrh	r3, [r7, #12]
 800258a:	980d      	ldr	r0, [sp, #52]	@ 0x34
 800258c:	065b      	lsls	r3, r3, #25
 800258e:	d500      	bpl.n	8002592 <_svfiprintf_r+0x1d2>
 8002590:	e72c      	b.n	80023ec <_svfiprintf_r+0x2c>
 8002592:	b021      	add	sp, #132	@ 0x84
 8002594:	bdf0      	pop	{r4, r5, r6, r7, pc}
 8002596:	aa07      	add	r2, sp, #28
 8002598:	9200      	str	r2, [sp, #0]
 800259a:	0021      	movs	r1, r4
 800259c:	003a      	movs	r2, r7
 800259e:	4b06      	ldr	r3, [pc, #24]	@ (80025b8 <_svfiprintf_r+0x1f8>)
 80025a0:	9803      	ldr	r0, [sp, #12]
 80025a2:	f000 f87b 	bl	800269c <_printf_i>
 80025a6:	e7eb      	b.n	8002580 <_svfiprintf_r+0x1c0>
 80025a8:	08002b64 	.word	0x08002b64
 80025ac:	08002b6a 	.word	0x08002b6a
 80025b0:	08002b6e 	.word	0x08002b6e
 80025b4:	00000000 	.word	0x00000000
 80025b8:	08002301 	.word	0x08002301

080025bc <_printf_common>:
 80025bc:	b5f7      	push	{r0, r1, r2, r4, r5, r6, r7, lr}
 80025be:	0016      	movs	r6, r2
 80025c0:	9301      	str	r3, [sp, #4]
 80025c2:	688a      	ldr	r2, [r1, #8]
 80025c4:	690b      	ldr	r3, [r1, #16]
 80025c6:	000c      	movs	r4, r1
 80025c8:	9000      	str	r0, [sp, #0]
 80025ca:	4293      	cmp	r3, r2
 80025cc:	da00      	bge.n	80025d0 <_printf_common+0x14>
 80025ce:	0013      	movs	r3, r2
 80025d0:	0022      	movs	r2, r4
 80025d2:	6033      	str	r3, [r6, #0]
 80025d4:	3243      	adds	r2, #67	@ 0x43
 80025d6:	7812      	ldrb	r2, [r2, #0]
 80025d8:	2a00      	cmp	r2, #0
 80025da:	d001      	beq.n	80025e0 <_printf_common+0x24>
 80025dc:	3301      	adds	r3, #1
 80025de:	6033      	str	r3, [r6, #0]
 80025e0:	6823      	ldr	r3, [r4, #0]
 80025e2:	069b      	lsls	r3, r3, #26
 80025e4:	d502      	bpl.n	80025ec <_printf_common+0x30>
 80025e6:	6833      	ldr	r3, [r6, #0]
 80025e8:	3302      	adds	r3, #2
 80025ea:	6033      	str	r3, [r6, #0]
 80025ec:	6822      	ldr	r2, [r4, #0]
 80025ee:	2306      	movs	r3, #6
 80025f0:	0015      	movs	r5, r2
 80025f2:	401d      	ands	r5, r3
 80025f4:	421a      	tst	r2, r3
 80025f6:	d027      	beq.n	8002648 <_printf_common+0x8c>
 80025f8:	0023      	movs	r3, r4
 80025fa:	3343      	adds	r3, #67	@ 0x43
 80025fc:	781b      	ldrb	r3, [r3, #0]
 80025fe:	1e5a      	subs	r2, r3, #1
 8002600:	4193      	sbcs	r3, r2
 8002602:	6822      	ldr	r2, [r4, #0]
 8002604:	0692      	lsls	r2, r2, #26
 8002606:	d430      	bmi.n	800266a <_printf_common+0xae>
 8002608:	0022      	movs	r2, r4
 800260a:	9901      	ldr	r1, [sp, #4]
 800260c:	9800      	ldr	r0, [sp, #0]
 800260e:	9d08      	ldr	r5, [sp, #32]
 8002610:	3243      	adds	r2, #67	@ 0x43
 8002612:	47a8      	blx	r5
 8002614:	3001      	adds	r0, #1
 8002616:	d025      	beq.n	8002664 <_printf_common+0xa8>
 8002618:	2206      	movs	r2, #6
 800261a:	6823      	ldr	r3, [r4, #0]
 800261c:	2500      	movs	r5, #0
 800261e:	4013      	ands	r3, r2
 8002620:	2b04      	cmp	r3, #4
 8002622:	d105      	bne.n	8002630 <_printf_common+0x74>
 8002624:	6833      	ldr	r3, [r6, #0]
 8002626:	68e5      	ldr	r5, [r4, #12]
 8002628:	1aed      	subs	r5, r5, r3
 800262a:	43eb      	mvns	r3, r5
 800262c:	17db      	asrs	r3, r3, #31
 800262e:	401d      	ands	r5, r3
 8002630:	68a3      	ldr	r3, [r4, #8]
 8002632:	6922      	ldr	r2, [r4, #16]
 8002634:	4293      	cmp	r3, r2
 8002636:	dd01      	ble.n	800263c <_printf_common+0x80>
 8002638:	1a9b      	subs	r3, r3, r2
 800263a:	18ed      	adds	r5, r5, r3
 800263c:	2600      	movs	r6, #0
 800263e:	42b5      	cmp	r5, r6
 8002640:	d120      	bne.n	8002684 <_printf_common+0xc8>
 8002642:	2000      	movs	r0, #0
 8002644:	e010      	b.n	8002668 <_printf_common+0xac>
 8002646:	3501      	adds	r5, #1
 8002648:	68e3      	ldr	r3, [r4, #12]
 800264a:	6832      	ldr	r2, [r6, #0]
 800264c:	1a9b      	subs	r3, r3, r2
 800264e:	42ab      	cmp	r3, r5
 8002650:	ddd2      	ble.n	80025f8 <_printf_common+0x3c>
 8002652:	0022      	movs	r2, r4
 8002654:	2301      	movs	r3, #1
 8002656:	9901      	ldr	r1, [sp, #4]
 8002658:	9800      	ldr	r0, [sp, #0]
 800265a:	9f08      	ldr	r7, [sp, #32]
 800265c:	3219      	adds	r2, #25
 800265e:	47b8      	blx	r7
 8002660:	3001      	adds	r0, #1
 8002662:	d1f0      	bne.n	8002646 <_printf_common+0x8a>
 8002664:	2001      	movs	r0, #1
 8002666:	4240      	negs	r0, r0
 8002668:	bdfe      	pop	{r1, r2, r3, r4, r5, r6, r7, pc}
 800266a:	2030      	movs	r0, #48	@ 0x30
 800266c:	18e1      	adds	r1, r4, r3
 800266e:	3143      	adds	r1, #67	@ 0x43
 8002670:	7008      	strb	r0, [r1, #0]
 8002672:	0021      	movs	r1, r4
 8002674:	1c5a      	adds	r2, r3, #1
 8002676:	3145      	adds	r1, #69	@ 0x45
 8002678:	7809      	ldrb	r1, [r1, #0]
 800267a:	18a2      	adds	r2, r4, r2
 800267c:	3243      	adds	r2, #67	@ 0x43
 800267e:	3302      	adds	r3, #2
 8002680:	7011      	strb	r1, [r2, #0]
 8002682:	e7c1      	b.n	8002608 <_printf_common+0x4c>
 8002684:	0022      	movs	r2, r4
 8002686:	2301      	movs	r3, #1
 8002688:	9901      	ldr	r1, [sp, #4]
 800268a:	9800      	ldr	r0, [sp, #0]
 800268c:	9f08      	ldr	r7, [sp, #32]
 800268e:	321a      	adds	r2, #26
 8002690:	47b8      	blx	r7
 8002692:	3001      	adds	r0, #1
 8002694:	d0e6      	beq.n	8002664 <_printf_common+0xa8>
 8002696:	3601      	adds	r6, #1
 8002698:	e7d1      	b.n	800263e <_printf_common+0x82>
	...

0800269c <_printf_i>:
 800269c:	b5f0      	push	{r4, r5, r6, r7, lr}
 800269e:	b08b      	sub	sp, #44	@ 0x2c
 80026a0:	9206      	str	r2, [sp, #24]
 80026a2:	000a      	movs	r2, r1
 80026a4:	3243      	adds	r2, #67	@ 0x43
 80026a6:	9307      	str	r3, [sp, #28]
 80026a8:	9005      	str	r0, [sp, #20]
 80026aa:	9203      	str	r2, [sp, #12]
 80026ac:	7e0a      	ldrb	r2, [r1, #24]
 80026ae:	000c      	movs	r4, r1
 80026b0:	9b10      	ldr	r3, [sp, #64]	@ 0x40
 80026b2:	2a78      	cmp	r2, #120	@ 0x78
 80026b4:	d809      	bhi.n	80026ca <_printf_i+0x2e>
 80026b6:	2a62      	cmp	r2, #98	@ 0x62
 80026b8:	d80b      	bhi.n	80026d2 <_printf_i+0x36>
 80026ba:	2a00      	cmp	r2, #0
 80026bc:	d100      	bne.n	80026c0 <_printf_i+0x24>
 80026be:	e0ba      	b.n	8002836 <_printf_i+0x19a>
 80026c0:	497a      	ldr	r1, [pc, #488]	@ (80028ac <_printf_i+0x210>)
 80026c2:	9104      	str	r1, [sp, #16]
 80026c4:	2a58      	cmp	r2, #88	@ 0x58
 80026c6:	d100      	bne.n	80026ca <_printf_i+0x2e>
 80026c8:	e08e      	b.n	80027e8 <_printf_i+0x14c>
 80026ca:	0025      	movs	r5, r4
 80026cc:	3542      	adds	r5, #66	@ 0x42
 80026ce:	702a      	strb	r2, [r5, #0]
 80026d0:	e022      	b.n	8002718 <_printf_i+0x7c>
 80026d2:	0010      	movs	r0, r2
 80026d4:	3863      	subs	r0, #99	@ 0x63
 80026d6:	2815      	cmp	r0, #21
 80026d8:	d8f7      	bhi.n	80026ca <_printf_i+0x2e>
 80026da:	f7fd fd15 	bl	8000108 <__gnu_thumb1_case_shi>
 80026de:	0016      	.short	0x0016
 80026e0:	fff6001f 	.word	0xfff6001f
 80026e4:	fff6fff6 	.word	0xfff6fff6
 80026e8:	001ffff6 	.word	0x001ffff6
 80026ec:	fff6fff6 	.word	0xfff6fff6
 80026f0:	fff6fff6 	.word	0xfff6fff6
 80026f4:	0036009f 	.word	0x0036009f
 80026f8:	fff6007e 	.word	0xfff6007e
 80026fc:	00b0fff6 	.word	0x00b0fff6
 8002700:	0036fff6 	.word	0x0036fff6
 8002704:	fff6fff6 	.word	0xfff6fff6
 8002708:	0082      	.short	0x0082
 800270a:	0025      	movs	r5, r4
 800270c:	681a      	ldr	r2, [r3, #0]
 800270e:	3542      	adds	r5, #66	@ 0x42
 8002710:	1d11      	adds	r1, r2, #4
 8002712:	6019      	str	r1, [r3, #0]
 8002714:	6813      	ldr	r3, [r2, #0]
 8002716:	702b      	strb	r3, [r5, #0]
 8002718:	2301      	movs	r3, #1
 800271a:	e09e      	b.n	800285a <_printf_i+0x1be>
 800271c:	6818      	ldr	r0, [r3, #0]
 800271e:	6809      	ldr	r1, [r1, #0]
 8002720:	1d02      	adds	r2, r0, #4
 8002722:	060d      	lsls	r5, r1, #24
 8002724:	d50b      	bpl.n	800273e <_printf_i+0xa2>
 8002726:	6806      	ldr	r6, [r0, #0]
 8002728:	601a      	str	r2, [r3, #0]
 800272a:	2e00      	cmp	r6, #0
 800272c:	da03      	bge.n	8002736 <_printf_i+0x9a>
 800272e:	232d      	movs	r3, #45	@ 0x2d
 8002730:	9a03      	ldr	r2, [sp, #12]
 8002732:	4276      	negs	r6, r6
 8002734:	7013      	strb	r3, [r2, #0]
 8002736:	4b5d      	ldr	r3, [pc, #372]	@ (80028ac <_printf_i+0x210>)
 8002738:	270a      	movs	r7, #10
 800273a:	9304      	str	r3, [sp, #16]
 800273c:	e018      	b.n	8002770 <_printf_i+0xd4>
 800273e:	6806      	ldr	r6, [r0, #0]
 8002740:	601a      	str	r2, [r3, #0]
 8002742:	0649      	lsls	r1, r1, #25
 8002744:	d5f1      	bpl.n	800272a <_printf_i+0x8e>
 8002746:	b236      	sxth	r6, r6
 8002748:	e7ef      	b.n	800272a <_printf_i+0x8e>
 800274a:	6808      	ldr	r0, [r1, #0]
 800274c:	6819      	ldr	r1, [r3, #0]
 800274e:	c940      	ldmia	r1!, {r6}
 8002750:	0605      	lsls	r5, r0, #24
 8002752:	d402      	bmi.n	800275a <_printf_i+0xbe>
 8002754:	0640      	lsls	r0, r0, #25
 8002756:	d500      	bpl.n	800275a <_printf_i+0xbe>
 8002758:	b2b6      	uxth	r6, r6
 800275a:	6019      	str	r1, [r3, #0]
 800275c:	4b53      	ldr	r3, [pc, #332]	@ (80028ac <_printf_i+0x210>)
 800275e:	270a      	movs	r7, #10
 8002760:	9304      	str	r3, [sp, #16]
 8002762:	2a6f      	cmp	r2, #111	@ 0x6f
 8002764:	d100      	bne.n	8002768 <_printf_i+0xcc>
 8002766:	3f02      	subs	r7, #2
 8002768:	0023      	movs	r3, r4
 800276a:	2200      	movs	r2, #0
 800276c:	3343      	adds	r3, #67	@ 0x43
 800276e:	701a      	strb	r2, [r3, #0]
 8002770:	6863      	ldr	r3, [r4, #4]
 8002772:	60a3      	str	r3, [r4, #8]
 8002774:	2b00      	cmp	r3, #0
 8002776:	db06      	blt.n	8002786 <_printf_i+0xea>
 8002778:	2104      	movs	r1, #4
 800277a:	6822      	ldr	r2, [r4, #0]
 800277c:	9d03      	ldr	r5, [sp, #12]
 800277e:	438a      	bics	r2, r1
 8002780:	6022      	str	r2, [r4, #0]
 8002782:	4333      	orrs	r3, r6
 8002784:	d00c      	beq.n	80027a0 <_printf_i+0x104>
 8002786:	9d03      	ldr	r5, [sp, #12]
 8002788:	0030      	movs	r0, r6
 800278a:	0039      	movs	r1, r7
 800278c:	f7fd fd4c 	bl	8000228 <__aeabi_uidivmod>
 8002790:	9b04      	ldr	r3, [sp, #16]
 8002792:	3d01      	subs	r5, #1
 8002794:	5c5b      	ldrb	r3, [r3, r1]
 8002796:	702b      	strb	r3, [r5, #0]
 8002798:	0033      	movs	r3, r6
 800279a:	0006      	movs	r6, r0
 800279c:	429f      	cmp	r7, r3
 800279e:	d9f3      	bls.n	8002788 <_printf_i+0xec>
 80027a0:	2f08      	cmp	r7, #8
 80027a2:	d109      	bne.n	80027b8 <_printf_i+0x11c>
 80027a4:	6823      	ldr	r3, [r4, #0]
 80027a6:	07db      	lsls	r3, r3, #31
 80027a8:	d506      	bpl.n	80027b8 <_printf_i+0x11c>
 80027aa:	6862      	ldr	r2, [r4, #4]
 80027ac:	6923      	ldr	r3, [r4, #16]
 80027ae:	429a      	cmp	r2, r3
 80027b0:	dc02      	bgt.n	80027b8 <_printf_i+0x11c>
 80027b2:	2330      	movs	r3, #48	@ 0x30
 80027b4:	3d01      	subs	r5, #1
 80027b6:	702b      	strb	r3, [r5, #0]
 80027b8:	9b03      	ldr	r3, [sp, #12]
 80027ba:	1b5b      	subs	r3, r3, r5
 80027bc:	6123      	str	r3, [r4, #16]
 80027be:	9b07      	ldr	r3, [sp, #28]
 80027c0:	0021      	movs	r1, r4
 80027c2:	9300      	str	r3, [sp, #0]
 80027c4:	9805      	ldr	r0, [sp, #20]
 80027c6:	9b06      	ldr	r3, [sp, #24]
 80027c8:	aa09      	add	r2, sp, #36	@ 0x24
 80027ca:	f7ff fef7 	bl	80025bc <_printf_common>
 80027ce:	3001      	adds	r0, #1
 80027d0:	d148      	bne.n	8002864 <_printf_i+0x1c8>
 80027d2:	2001      	movs	r0, #1
 80027d4:	4240      	negs	r0, r0
 80027d6:	b00b      	add	sp, #44	@ 0x2c
 80027d8:	bdf0      	pop	{r4, r5, r6, r7, pc}
 80027da:	2220      	movs	r2, #32
 80027dc:	6809      	ldr	r1, [r1, #0]
 80027de:	430a      	orrs	r2, r1
 80027e0:	6022      	str	r2, [r4, #0]
 80027e2:	2278      	movs	r2, #120	@ 0x78
 80027e4:	4932      	ldr	r1, [pc, #200]	@ (80028b0 <_printf_i+0x214>)
 80027e6:	9104      	str	r1, [sp, #16]
 80027e8:	0021      	movs	r1, r4
 80027ea:	3145      	adds	r1, #69	@ 0x45
 80027ec:	700a      	strb	r2, [r1, #0]
 80027ee:	6819      	ldr	r1, [r3, #0]
 80027f0:	6822      	ldr	r2, [r4, #0]
 80027f2:	c940      	ldmia	r1!, {r6}
 80027f4:	0610      	lsls	r0, r2, #24
 80027f6:	d402      	bmi.n	80027fe <_printf_i+0x162>
 80027f8:	0650      	lsls	r0, r2, #25
 80027fa:	d500      	bpl.n	80027fe <_printf_i+0x162>
 80027fc:	b2b6      	uxth	r6, r6
 80027fe:	6019      	str	r1, [r3, #0]
 8002800:	07d3      	lsls	r3, r2, #31
 8002802:	d502      	bpl.n	800280a <_printf_i+0x16e>
 8002804:	2320      	movs	r3, #32
 8002806:	4313      	orrs	r3, r2
 8002808:	6023      	str	r3, [r4, #0]
 800280a:	2e00      	cmp	r6, #0
 800280c:	d001      	beq.n	8002812 <_printf_i+0x176>
 800280e:	2710      	movs	r7, #16
 8002810:	e7aa      	b.n	8002768 <_printf_i+0xcc>
 8002812:	2220      	movs	r2, #32
 8002814:	6823      	ldr	r3, [r4, #0]
 8002816:	4393      	bics	r3, r2
 8002818:	6023      	str	r3, [r4, #0]
 800281a:	e7f8      	b.n	800280e <_printf_i+0x172>
 800281c:	681a      	ldr	r2, [r3, #0]
 800281e:	680d      	ldr	r5, [r1, #0]
 8002820:	1d10      	adds	r0, r2, #4
 8002822:	6949      	ldr	r1, [r1, #20]
 8002824:	6018      	str	r0, [r3, #0]
 8002826:	6813      	ldr	r3, [r2, #0]
 8002828:	062e      	lsls	r6, r5, #24
 800282a:	d501      	bpl.n	8002830 <_printf_i+0x194>
 800282c:	6019      	str	r1, [r3, #0]
 800282e:	e002      	b.n	8002836 <_printf_i+0x19a>
 8002830:	066d      	lsls	r5, r5, #25
 8002832:	d5fb      	bpl.n	800282c <_printf_i+0x190>
 8002834:	8019      	strh	r1, [r3, #0]
 8002836:	2300      	movs	r3, #0
 8002838:	9d03      	ldr	r5, [sp, #12]
 800283a:	6123      	str	r3, [r4, #16]
 800283c:	e7bf      	b.n	80027be <_printf_i+0x122>
 800283e:	681a      	ldr	r2, [r3, #0]
 8002840:	1d11      	adds	r1, r2, #4
 8002842:	6019      	str	r1, [r3, #0]
 8002844:	6815      	ldr	r5, [r2, #0]
 8002846:	2100      	movs	r1, #0
 8002848:	0028      	movs	r0, r5
 800284a:	6862      	ldr	r2, [r4, #4]
 800284c:	f000 f856 	bl	80028fc <memchr>
 8002850:	2800      	cmp	r0, #0
 8002852:	d001      	beq.n	8002858 <_printf_i+0x1bc>
 8002854:	1b40      	subs	r0, r0, r5
 8002856:	6060      	str	r0, [r4, #4]
 8002858:	6863      	ldr	r3, [r4, #4]
 800285a:	6123      	str	r3, [r4, #16]
 800285c:	2300      	movs	r3, #0
 800285e:	9a03      	ldr	r2, [sp, #12]
 8002860:	7013      	strb	r3, [r2, #0]
 8002862:	e7ac      	b.n	80027be <_printf_i+0x122>
 8002864:	002a      	movs	r2, r5
 8002866:	6923      	ldr	r3, [r4, #16]
 8002868:	9906      	ldr	r1, [sp, #24]
 800286a:	9805      	ldr	r0, [sp, #20]
 800286c:	9d07      	ldr	r5, [sp, #28]
 800286e:	47a8      	blx	r5
 8002870:	3001      	adds	r0, #1
 8002872:	d0ae      	beq.n	80027d2 <_printf_i+0x136>
 8002874:	6823      	ldr	r3, [r4, #0]
 8002876:	079b      	lsls	r3, r3, #30
 8002878:	d415      	bmi.n	80028a6 <_printf_i+0x20a>
 800287a:	9b09      	ldr	r3, [sp, #36]	@ 0x24
 800287c:	68e0      	ldr	r0, [r4, #12]
 800287e:	4298      	cmp	r0, r3
 8002880:	daa9      	bge.n	80027d6 <_printf_i+0x13a>
 8002882:	0018      	movs	r0, r3
 8002884:	e7a7      	b.n	80027d6 <_printf_i+0x13a>
 8002886:	0022      	movs	r2, r4
 8002888:	2301      	movs	r3, #1
 800288a:	9906      	ldr	r1, [sp, #24]
 800288c:	9805      	ldr	r0, [sp, #20]
 800288e:	9e07      	ldr	r6, [sp, #28]
 8002890:	3219      	adds	r2, #25
 8002892:	47b0      	blx	r6
 8002894:	3001      	adds	r0, #1
 8002896:	d09c      	beq.n	80027d2 <_printf_i+0x136>
 8002898:	3501      	adds	r5, #1
 800289a:	68e3      	ldr	r3, [r4, #12]
 800289c:	9a09      	ldr	r2, [sp, #36]	@ 0x24
 800289e:	1a9b      	subs	r3, r3, r2
 80028a0:	42ab      	cmp	r3, r5
 80028a2:	dcf0      	bgt.n	8002886 <_printf_i+0x1ea>
 80028a4:	e7e9      	b.n	800287a <_printf_i+0x1de>
 80028a6:	2500      	movs	r5, #0
 80028a8:	e7f7      	b.n	800289a <_printf_i+0x1fe>
 80028aa:	46c0      	nop			@ (mov r8, r8)
 80028ac:	08002b75 	.word	0x08002b75
 80028b0:	08002b86 	.word	0x08002b86

080028b4 <memmove>:
 80028b4:	b510      	push	{r4, lr}
 80028b6:	4288      	cmp	r0, r1
 80028b8:	d902      	bls.n	80028c0 <memmove+0xc>
 80028ba:	188b      	adds	r3, r1, r2
 80028bc:	4298      	cmp	r0, r3
 80028be:	d308      	bcc.n	80028d2 <memmove+0x1e>
 80028c0:	2300      	movs	r3, #0
 80028c2:	429a      	cmp	r2, r3
 80028c4:	d007      	beq.n	80028d6 <memmove+0x22>
 80028c6:	5ccc      	ldrb	r4, [r1, r3]
 80028c8:	54c4      	strb	r4, [r0, r3]
 80028ca:	3301      	adds	r3, #1
 80028cc:	e7f9      	b.n	80028c2 <memmove+0xe>
 80028ce:	5c8b      	ldrb	r3, [r1, r2]
 80028d0:	5483      	strb	r3, [r0, r2]
 80028d2:	3a01      	subs	r2, #1
 80028d4:	d2fb      	bcs.n	80028ce <memmove+0x1a>
 80028d6:	bd10      	pop	{r4, pc}

080028d8 <_sbrk_r>:
 80028d8:	2300      	movs	r3, #0
 80028da:	b570      	push	{r4, r5, r6, lr}
 80028dc:	4d06      	ldr	r5, [pc, #24]	@ (80028f8 <_sbrk_r+0x20>)
 80028de:	0004      	movs	r4, r0
 80028e0:	0008      	movs	r0, r1
 80028e2:	602b      	str	r3, [r5, #0]
 80028e4:	f7ff fb4e 	bl	8001f84 <_sbrk>
 80028e8:	1c43      	adds	r3, r0, #1
 80028ea:	d103      	bne.n	80028f4 <_sbrk_r+0x1c>
 80028ec:	682b      	ldr	r3, [r5, #0]
 80028ee:	2b00      	cmp	r3, #0
 80028f0:	d000      	beq.n	80028f4 <_sbrk_r+0x1c>
 80028f2:	6023      	str	r3, [r4, #0]
 80028f4:	bd70      	pop	{r4, r5, r6, pc}
 80028f6:	46c0      	nop			@ (mov r8, r8)
 80028f8:	20000220 	.word	0x20000220

080028fc <memchr>:
 80028fc:	b2c9      	uxtb	r1, r1
 80028fe:	1882      	adds	r2, r0, r2
 8002900:	4290      	cmp	r0, r2
 8002902:	d101      	bne.n	8002908 <memchr+0xc>
 8002904:	2000      	movs	r0, #0
 8002906:	4770      	bx	lr
 8002908:	7803      	ldrb	r3, [r0, #0]
 800290a:	428b      	cmp	r3, r1
 800290c:	d0fb      	beq.n	8002906 <memchr+0xa>
 800290e:	3001      	adds	r0, #1
 8002910:	e7f6      	b.n	8002900 <memchr+0x4>

08002912 <memcpy>:
 8002912:	2300      	movs	r3, #0
 8002914:	b510      	push	{r4, lr}
 8002916:	429a      	cmp	r2, r3
 8002918:	d100      	bne.n	800291c <memcpy+0xa>
 800291a:	bd10      	pop	{r4, pc}
 800291c:	5ccc      	ldrb	r4, [r1, r3]
 800291e:	54c4      	strb	r4, [r0, r3]
 8002920:	3301      	adds	r3, #1
 8002922:	e7f8      	b.n	8002916 <memcpy+0x4>

08002924 <_realloc_r>:
 8002924:	b5f7      	push	{r0, r1, r2, r4, r5, r6, r7, lr}
 8002926:	0006      	movs	r6, r0
 8002928:	000c      	movs	r4, r1
 800292a:	0015      	movs	r5, r2
 800292c:	2900      	cmp	r1, #0
 800292e:	d105      	bne.n	800293c <_realloc_r+0x18>
 8002930:	0011      	movs	r1, r2
 8002932:	f7ff fc55 	bl	80021e0 <_malloc_r>
 8002936:	0004      	movs	r4, r0
 8002938:	0020      	movs	r0, r4
 800293a:	bdfe      	pop	{r1, r2, r3, r4, r5, r6, r7, pc}
 800293c:	2a00      	cmp	r2, #0
 800293e:	d103      	bne.n	8002948 <_realloc_r+0x24>
 8002940:	f7ff fbe2 	bl	8002108 <_free_r>
 8002944:	002c      	movs	r4, r5
 8002946:	e7f7      	b.n	8002938 <_realloc_r+0x14>
 8002948:	f000 f81c 	bl	8002984 <_malloc_usable_size_r>
 800294c:	0007      	movs	r7, r0
 800294e:	4285      	cmp	r5, r0
 8002950:	d802      	bhi.n	8002958 <_realloc_r+0x34>
 8002952:	0843      	lsrs	r3, r0, #1
 8002954:	42ab      	cmp	r3, r5
 8002956:	d3ef      	bcc.n	8002938 <_realloc_r+0x14>
 8002958:	0029      	movs	r1, r5
 800295a:	0030      	movs	r0, r6
 800295c:	f7ff fc40 	bl	80021e0 <_malloc_r>
 8002960:	9001      	str	r0, [sp, #4]
 8002962:	2800      	cmp	r0, #0
 8002964:	d101      	bne.n	800296a <_realloc_r+0x46>
 8002966:	9c01      	ldr	r4, [sp, #4]
 8002968:	e7e6      	b.n	8002938 <_realloc_r+0x14>
 800296a:	002a      	movs	r2, r5
 800296c:	42bd      	cmp	r5, r7
 800296e:	d900      	bls.n	8002972 <_realloc_r+0x4e>
 8002970:	003a      	movs	r2, r7
 8002972:	0021      	movs	r1, r4
 8002974:	9801      	ldr	r0, [sp, #4]
 8002976:	f7ff ffcc 	bl	8002912 <memcpy>
 800297a:	0021      	movs	r1, r4
 800297c:	0030      	movs	r0, r6
 800297e:	f7ff fbc3 	bl	8002108 <_free_r>
 8002982:	e7f0      	b.n	8002966 <_realloc_r+0x42>

08002984 <_malloc_usable_size_r>:
 8002984:	1f0b      	subs	r3, r1, #4
 8002986:	681b      	ldr	r3, [r3, #0]
 8002988:	1f18      	subs	r0, r3, #4
 800298a:	2b00      	cmp	r3, #0
 800298c:	da01      	bge.n	8002992 <_malloc_usable_size_r+0xe>
 800298e:	580b      	ldr	r3, [r1, r0]
 8002990:	18c0      	adds	r0, r0, r3
 8002992:	4770      	bx	lr

08002994 <_init>:
 8002994:	b5f8      	push	{r3, r4, r5, r6, r7, lr}
 8002996:	46c0      	nop			@ (mov r8, r8)
 8002998:	bcf8      	pop	{r3, r4, r5, r6, r7}
 800299a:	bc08      	pop	{r3}
 800299c:	469e      	mov	lr, r3
 800299e:	4770      	bx	lr

080029a0 <_fini>:
 80029a0:	b5f8      	push	{r3, r4, r5, r6, r7, lr}
 80029a2:	46c0      	nop			@ (mov r8, r8)
 80029a4:	bcf8      	pop	{r3, r4, r5, r6, r7}
 80029a6:	bc08      	pop	{r3}
 80029a8:	469e      	mov	lr, r3
 80029aa:	4770      	bx	lr
